   1                     ; C Compiler for STM8 (COSMIC Software)
   2                     ; Parser V4.11.9 - 08 Feb 2017
   3                     ; Generator (Limited) V4.4.6 - 08 Feb 2017
  15                     .const:	section	.text
  16  0000               _TEMP_TABLE:
  17  0000 0144          	dc.w	324
  18  0002 0146          	dc.w	326
  19  0004 0148          	dc.w	328
  20  0006 014a          	dc.w	330
  21  0008 014c          	dc.w	332
  22  000a 014e          	dc.w	334
  23  000c 0150          	dc.w	336
  24  000e 0152          	dc.w	338
  25  0010 0154          	dc.w	340
  26  0012 0156          	dc.w	342
  27  0014 0158          	dc.w	344
  28  0016 015a          	dc.w	346
  29  0018 015c          	dc.w	348
  30  001a 015e          	dc.w	350
  31  001c 0160          	dc.w	352
  32  001e 0162          	dc.w	354
  33  0020 0164          	dc.w	356
  34  0022 0166          	dc.w	358
  35  0024 0169          	dc.w	361
  36  0026 016b          	dc.w	363
  37  0028 016d          	dc.w	365
  38  002a 016f          	dc.w	367
  39  002c 0171          	dc.w	369
  40  002e 0173          	dc.w	371
  41  0030 0175          	dc.w	373
  42  0032 0178          	dc.w	376
  43  0034 017a          	dc.w	378
  44  0036 017c          	dc.w	380
  45  0038 017e          	dc.w	382
  46  003a 0180          	dc.w	384
  47  003c 0183          	dc.w	387
  48  003e 0185          	dc.w	389
  49  0040 0187          	dc.w	391
  50  0042 0189          	dc.w	393
  51  0044 018c          	dc.w	396
  52  0046 018e          	dc.w	398
  53  0048 0190          	dc.w	400
  54  004a 0192          	dc.w	402
  55  004c 0195          	dc.w	405
  56  004e 0197          	dc.w	407
  57  0050 0199          	dc.w	409
  58  0052 019c          	dc.w	412
  59  0054 019e          	dc.w	414
  60  0056 01a1          	dc.w	417
  61  0058 01a3          	dc.w	419
  62  005a 01a5          	dc.w	421
  63  005c 01a8          	dc.w	424
  64  005e 01aa          	dc.w	426
  65  0060 01ac          	dc.w	428
  66  0062 01af          	dc.w	431
  67  0064 01b1          	dc.w	433
  68  0066 01b4          	dc.w	436
  69  0068 01b6          	dc.w	438
  70  006a 01b9          	dc.w	441
  71  006c 01bb          	dc.w	443
  72  006e 01be          	dc.w	446
  73  0070 01c0          	dc.w	448
  74  0072 01c3          	dc.w	451
  75  0074 01c5          	dc.w	453
  76  0076 01c8          	dc.w	456
  77  0078 01ca          	dc.w	458
  78  007a 01cd          	dc.w	461
  79  007c 01cf          	dc.w	463
  80  007e 01d2          	dc.w	466
  81  0080 01d5          	dc.w	469
  82  0082 01d7          	dc.w	471
  83  0084 01da          	dc.w	474
  84  0086 01dc          	dc.w	476
  85  0088 01df          	dc.w	479
  86  008a 01e2          	dc.w	482
  87  008c 01e4          	dc.w	484
  88  008e 01e7          	dc.w	487
  89  0090 01ea          	dc.w	490
  90  0092 01ec          	dc.w	492
  91  0094 01ef          	dc.w	495
  92  0096 01f2          	dc.w	498
  93  0098 01f4          	dc.w	500
  94  009a 01f7          	dc.w	503
  95  009c 01fa          	dc.w	506
  96  009e 01fd          	dc.w	509
  97  00a0 01ff          	dc.w	511
  98  00a2 0202          	dc.w	514
  99  00a4 0205          	dc.w	517
 100  00a6 0208          	dc.w	520
 101  00a8 020a          	dc.w	522
 102  00aa 020d          	dc.w	525
 103  00ac 0210          	dc.w	528
 104  00ae 0213          	dc.w	531
 105  00b0 0216          	dc.w	534
 106  00b2 0219          	dc.w	537
 107  00b4 021c          	dc.w	540
 108  00b6 021e          	dc.w	542
 109  00b8 0221          	dc.w	545
 110  00ba 0224          	dc.w	548
 111  00bc 0227          	dc.w	551
 112  00be 022a          	dc.w	554
 113  00c0 022d          	dc.w	557
 114  00c2 0230          	dc.w	560
 115  00c4 0233          	dc.w	563
 116  00c6 0236          	dc.w	566
 117  00c8 0239          	dc.w	569
 118  00ca 023c          	dc.w	572
 119  00cc 023f          	dc.w	575
 120  00ce 0242          	dc.w	578
 121  00d0 0245          	dc.w	581
 122  00d2 0248          	dc.w	584
 123  00d4 024b          	dc.w	587
 124  00d6 024e          	dc.w	590
 125  00d8 0251          	dc.w	593
 126  00da 0254          	dc.w	596
 127  00dc 0257          	dc.w	599
 128  00de 025a          	dc.w	602
 129  00e0 025e          	dc.w	606
 130  00e2 0261          	dc.w	609
 131  00e4 0264          	dc.w	612
 132  00e6 0267          	dc.w	615
 133  00e8 026a          	dc.w	618
 134  00ea 026d          	dc.w	621
 135  00ec 0270          	dc.w	624
 136  00ee 0274          	dc.w	628
 137  00f0 0277          	dc.w	631
 138  00f2 027a          	dc.w	634
 139  00f4 027d          	dc.w	637
 140  00f6 0281          	dc.w	641
 141  00f8 0284          	dc.w	644
 142  00fa 0287          	dc.w	647
 143  00fc 028a          	dc.w	650
 144  00fe 028e          	dc.w	654
 145  0100 0291          	dc.w	657
 146  0102 0294          	dc.w	660
 147  0104 0298          	dc.w	664
 148  0106 029b          	dc.w	667
 149  0108 029e          	dc.w	670
 150  010a 02a2          	dc.w	674
 151  010c 02a5          	dc.w	677
 152  010e 02a8          	dc.w	680
 153  0110 02ac          	dc.w	684
 154  0112 02af          	dc.w	687
 155  0114 02b3          	dc.w	691
 156  0116 02b6          	dc.w	694
 157  0118 02ba          	dc.w	698
 158  011a 02bd          	dc.w	701
 159  011c 02c0          	dc.w	704
 160  011e 02c4          	dc.w	708
 161  0120 02c7          	dc.w	711
 162  0122 02cb          	dc.w	715
 163  0124 02ce          	dc.w	718
 164  0126 02d2          	dc.w	722
 165  0128 02d6          	dc.w	726
 166  012a 02d9          	dc.w	729
 167  012c 02dd          	dc.w	733
 168  012e 02e0          	dc.w	736
 169  0130 02e4          	dc.w	740
 170  0132 02e7          	dc.w	743
 171  0134 02eb          	dc.w	747
 172  0136 02ef          	dc.w	751
 173  0138 02f2          	dc.w	754
 174  013a 02f6          	dc.w	758
 175  013c 02fa          	dc.w	762
 176  013e 02fd          	dc.w	765
 177  0140 0301          	dc.w	769
 178  0142 0305          	dc.w	773
 179  0144 0308          	dc.w	776
 180  0146 030c          	dc.w	780
 181  0148 0310          	dc.w	784
 182  014a 0313          	dc.w	787
 183  014c 0317          	dc.w	791
 184  014e 031b          	dc.w	795
 185  0150 031f          	dc.w	799
 186  0152 0323          	dc.w	803
 187  0154 0326          	dc.w	806
 188  0156 032a          	dc.w	810
 189  0158 032e          	dc.w	814
 190  015a 0332          	dc.w	818
 191  015c 0336          	dc.w	822
 192  015e 0339          	dc.w	825
 193  0160 033d          	dc.w	829
 194  0162 0341          	dc.w	833
 195  0164 0345          	dc.w	837
 196  0166 0349          	dc.w	841
 197  0168 034d          	dc.w	845
 198  016a 0351          	dc.w	849
 199  016c 0355          	dc.w	853
 200  016e 0359          	dc.w	857
 201  0170 035d          	dc.w	861
 202  0172 0361          	dc.w	865
 203  0174 0365          	dc.w	869
 204  0176 0369          	dc.w	873
 205  0178 036d          	dc.w	877
 206  017a 0371          	dc.w	881
 207  017c 0375          	dc.w	885
 208  017e 0379          	dc.w	889
 209  0180 037d          	dc.w	893
 210  0182 0381          	dc.w	897
 211  0184 0385          	dc.w	901
 212  0186 0389          	dc.w	905
 213  0188 038d          	dc.w	909
 214  018a 0391          	dc.w	913
 215  018c 0395          	dc.w	917
 216  018e 0399          	dc.w	921
 217  0190 039d          	dc.w	925
 218  0192 03a2          	dc.w	930
 219  0194 03a6          	dc.w	934
 220  0196 03aa          	dc.w	938
 221  0198 03ae          	dc.w	942
 222  019a 03b2          	dc.w	946
 223  019c 03b7          	dc.w	951
 224  019e 03bb          	dc.w	955
 225  01a0 03bf          	dc.w	959
 226  01a2 03c3          	dc.w	963
 227  01a4 03c7          	dc.w	967
 228  01a6 03cc          	dc.w	972
 229  01a8 03d0          	dc.w	976
 230  01aa 03d4          	dc.w	980
 231  01ac 03d9          	dc.w	985
 232  01ae 03dd          	dc.w	989
 233  01b0 03e1          	dc.w	993
 234  01b2 03e6          	dc.w	998
 235  01b4 03ea          	dc.w	1002
 236  01b6 03ee          	dc.w	1006
 237  01b8 03f3          	dc.w	1011
 238  01ba 03f7          	dc.w	1015
 239  01bc 03fb          	dc.w	1019
 240  01be 0400          	dc.w	1024
 241  01c0 0404          	dc.w	1028
 242  01c2 0409          	dc.w	1033
 243  01c4 040d          	dc.w	1037
 244  01c6 0411          	dc.w	1041
 245  01c8 0416          	dc.w	1046
 246  01ca 041a          	dc.w	1050
 247  01cc 041f          	dc.w	1055
 248  01ce 0423          	dc.w	1059
 249  01d0 0428          	dc.w	1064
 250  01d2 042c          	dc.w	1068
 251  01d4 0431          	dc.w	1073
 252  01d6 0435          	dc.w	1077
 253  01d8 043a          	dc.w	1082
 254  01da 043e          	dc.w	1086
 255  01dc 0443          	dc.w	1091
 256  01de 0447          	dc.w	1095
 257  01e0 044c          	dc.w	1100
 258  01e2 0451          	dc.w	1105
 259  01e4 0455          	dc.w	1109
 260  01e6 045a          	dc.w	1114
 261  01e8 045e          	dc.w	1118
 262  01ea 0463          	dc.w	1123
 263  01ec 0468          	dc.w	1128
 264  01ee 046c          	dc.w	1132
 265  01f0 0471          	dc.w	1137
 266  01f2 0476          	dc.w	1142
 267  01f4 047a          	dc.w	1146
 268  01f6 047f          	dc.w	1151
 269  01f8 0484          	dc.w	1156
 270  01fa 0488          	dc.w	1160
 271  01fc 048d          	dc.w	1165
 272  01fe 0492          	dc.w	1170
 273  0200 0496          	dc.w	1174
 274  0202 049b          	dc.w	1179
 275  0204 04a0          	dc.w	1184
 276  0206 04a5          	dc.w	1189
 277  0208 04aa          	dc.w	1194
 278  020a 04ae          	dc.w	1198
 279  020c 04b3          	dc.w	1203
 280  020e 04b8          	dc.w	1208
 281  0210 04bd          	dc.w	1213
 282  0212 04c2          	dc.w	1218
 283  0214 04c6          	dc.w	1222
 284  0216 04cb          	dc.w	1227
 285  0218 04d0          	dc.w	1232
 286  021a 04d5          	dc.w	1237
 287  021c 04da          	dc.w	1242
 288  021e 04df          	dc.w	1247
 289  0220 04e3          	dc.w	1251
 290  0222 04e8          	dc.w	1256
 291  0224 04ed          	dc.w	1261
 292  0226 04f2          	dc.w	1266
 293  0228 04f7          	dc.w	1271
 294  022a 04fc          	dc.w	1276
 295  022c 0501          	dc.w	1281
 296  022e 0506          	dc.w	1286
 297  0230 050b          	dc.w	1291
 298  0232 0510          	dc.w	1296
 299  0234 0515          	dc.w	1301
 300  0236 051a          	dc.w	1306
 301  0238 051f          	dc.w	1311
 302  023a 0524          	dc.w	1316
 303  023c 0529          	dc.w	1321
 304  023e 052e          	dc.w	1326
 305  0240 0533          	dc.w	1331
 306  0242 0538          	dc.w	1336
 307  0244 053d          	dc.w	1341
 308  0246 0542          	dc.w	1346
 309  0248 0547          	dc.w	1351
 310  024a 054c          	dc.w	1356
 311  024c 0551          	dc.w	1361
 312  024e 0556          	dc.w	1366
 313  0250 055b          	dc.w	1371
 314  0252 0560          	dc.w	1376
 315  0254 0566          	dc.w	1382
 316  0256 056b          	dc.w	1387
 317  0258 0570          	dc.w	1392
 318  025a 0575          	dc.w	1397
 319  025c 057a          	dc.w	1402
 320  025e 057f          	dc.w	1407
 321  0260 0584          	dc.w	1412
 322  0262 058a          	dc.w	1418
 323  0264 058f          	dc.w	1423
 324  0266 0594          	dc.w	1428
 325  0268 0599          	dc.w	1433
 326  026a 059e          	dc.w	1438
 327  026c 05a3          	dc.w	1443
 328  026e 05a9          	dc.w	1449
 329  0270 05ae          	dc.w	1454
 330  0272 05b3          	dc.w	1459
 331  0274 05b8          	dc.w	1464
 332  0276 05be          	dc.w	1470
 333  0278 05c3          	dc.w	1475
 334  027a 05c8          	dc.w	1480
 335  027c 05cd          	dc.w	1485
 336  027e 05d3          	dc.w	1491
 337  0280 05d8          	dc.w	1496
 338  0282 05dd          	dc.w	1501
 339  0284 05e2          	dc.w	1506
 340  0286 05e8          	dc.w	1512
 341  0288 05ed          	dc.w	1517
 342  028a 05f2          	dc.w	1522
 343  028c 05f8          	dc.w	1528
 344  028e 05fd          	dc.w	1533
 345  0290 0602          	dc.w	1538
 346  0292 0608          	dc.w	1544
 347  0294 060d          	dc.w	1549
 348  0296 0612          	dc.w	1554
 349  0298 0618          	dc.w	1560
 350  029a 061d          	dc.w	1565
 351  029c 0622          	dc.w	1570
 352  029e 0628          	dc.w	1576
 353  02a0 062d          	dc.w	1581
 354  02a2 0633          	dc.w	1587
 355  02a4 0638          	dc.w	1592
 356  02a6 063d          	dc.w	1597
 357  02a8 0643          	dc.w	1603
 358  02aa 0648          	dc.w	1608
 359  02ac 064e          	dc.w	1614
 360  02ae 0653          	dc.w	1619
 361  02b0 0658          	dc.w	1624
 362  02b2 065e          	dc.w	1630
 363  02b4 0663          	dc.w	1635
 364  02b6 0669          	dc.w	1641
 365  02b8 066e          	dc.w	1646
 366  02ba 0674          	dc.w	1652
 367  02bc 0679          	dc.w	1657
 368  02be 067e          	dc.w	1662
 369  02c0 0684          	dc.w	1668
 370  02c2 0689          	dc.w	1673
 371  02c4 068f          	dc.w	1679
 372  02c6 0694          	dc.w	1684
 373  02c8 069a          	dc.w	1690
 374  02ca 069f          	dc.w	1695
 375  02cc 06a5          	dc.w	1701
 376  02ce 06aa          	dc.w	1706
 377  02d0 06b0          	dc.w	1712
 378  02d2 06b5          	dc.w	1717
 379  02d4 06bb          	dc.w	1723
 380  02d6 06c0          	dc.w	1728
 381  02d8 06c6          	dc.w	1734
 382  02da 06cb          	dc.w	1739
 383  02dc 06d1          	dc.w	1745
 384  02de 06d7          	dc.w	1751
 385  02e0 06dc          	dc.w	1756
 386  02e2 06e2          	dc.w	1762
 387  02e4 06e7          	dc.w	1767
 388  02e6 06ed          	dc.w	1773
 389  02e8 06f2          	dc.w	1778
 390  02ea 06f8          	dc.w	1784
 391  02ec 06fd          	dc.w	1789
 392  02ee 0703          	dc.w	1795
 393  02f0 0709          	dc.w	1801
 394  02f2 070e          	dc.w	1806
 395  02f4 0714          	dc.w	1812
 396  02f6 0719          	dc.w	1817
 397  02f8 071f          	dc.w	1823
 398  02fa 0724          	dc.w	1828
 399  02fc 072a          	dc.w	1834
 400  02fe 0730          	dc.w	1840
 401  0300 0735          	dc.w	1845
 402  0302 073b          	dc.w	1851
 403  0304 0740          	dc.w	1856
 404  0306 0746          	dc.w	1862
 405  0308 074c          	dc.w	1868
 406  030a 0751          	dc.w	1873
 407  030c 0757          	dc.w	1879
 408  030e 075d          	dc.w	1885
 409  0310 0762          	dc.w	1890
 410  0312 0768          	dc.w	1896
 411  0314 076d          	dc.w	1901
 412  0316 0773          	dc.w	1907
 413  0318 0779          	dc.w	1913
 414  031a 077e          	dc.w	1918
 415  031c 0784          	dc.w	1924
 416  031e 078a          	dc.w	1930
 417  0320 078f          	dc.w	1935
 418  0322 0795          	dc.w	1941
 419  0324 079a          	dc.w	1946
 420  0326 07a0          	dc.w	1952
 421  0328 07a6          	dc.w	1958
 422  032a 07ab          	dc.w	1963
 423  032c 07b1          	dc.w	1969
 424  032e 07b7          	dc.w	1975
 425  0330 07bc          	dc.w	1980
 426  0332 07c2          	dc.w	1986
 427  0334 07c8          	dc.w	1992
 428  0336 07cd          	dc.w	1997
 429  0338 07d3          	dc.w	2003
 430  033a 07d9          	dc.w	2009
 431  033c 07de          	dc.w	2014
 432  033e 07e4          	dc.w	2020
 433  0340 07ea          	dc.w	2026
 434  0342 07ef          	dc.w	2031
 435  0344 07f5          	dc.w	2037
 436  0346 07fb          	dc.w	2043
 437  0348 0800          	dc.w	2048
 438  034a 0806          	dc.w	2054
 439  034c 080c          	dc.w	2060
 440  034e 0811          	dc.w	2065
 441  0350 0817          	dc.w	2071
 442  0352 081d          	dc.w	2077
 443  0354 0822          	dc.w	2082
 444  0356 0828          	dc.w	2088
 445  0358 082e          	dc.w	2094
 446  035a 0833          	dc.w	2099
 447  035c 0839          	dc.w	2105
 448  035e 083f          	dc.w	2111
 449  0360 0845          	dc.w	2117
 450  0362 084a          	dc.w	2122
 451  0364 0850          	dc.w	2128
 452  0366 0856          	dc.w	2134
 453  0368 085b          	dc.w	2139
 454  036a 0861          	dc.w	2145
 455  036c 0867          	dc.w	2151
 456  036e 086c          	dc.w	2156
 457  0370 0872          	dc.w	2162
 458  0372 0878          	dc.w	2168
 459  0374 087d          	dc.w	2173
 460  0376 0883          	dc.w	2179
 461  0378 0889          	dc.w	2185
 462  037a 088e          	dc.w	2190
 463  037c 0894          	dc.w	2196
 464  037e 089a          	dc.w	2202
 465  0380 089f          	dc.w	2207
 466  0382 08a5          	dc.w	2213
 467  0384 08ab          	dc.w	2219
 468  0386 08b0          	dc.w	2224
 469  0388 08b6          	dc.w	2230
 470  038a 08bc          	dc.w	2236
 471  038c 08c1          	dc.w	2241
 472  038e 08c7          	dc.w	2247
 473  0390 08cd          	dc.w	2253
 474  0392 08d2          	dc.w	2258
 475  0394 08d8          	dc.w	2264
 476  0396 08de          	dc.w	2270
 477  0398 08e3          	dc.w	2275
 478  039a 08e9          	dc.w	2281
 479  039c 08ef          	dc.w	2287
 480  039e 08f4          	dc.w	2292
 481  03a0 08fa          	dc.w	2298
 482  03a2 0900          	dc.w	2304
 483  03a4 0905          	dc.w	2309
 484  03a6 090b          	dc.w	2315
 485  03a8 0911          	dc.w	2321
 486  03aa 0916          	dc.w	2326
 487  03ac 091c          	dc.w	2332
 488  03ae 0922          	dc.w	2338
 489  03b0 0927          	dc.w	2343
 490  03b2 092d          	dc.w	2349
 491  03b4 0932          	dc.w	2354
 492  03b6 0938          	dc.w	2360
 493  03b8 093e          	dc.w	2366
 494  03ba 0943          	dc.w	2371
 495  03bc 0949          	dc.w	2377
 496  03be 094f          	dc.w	2383
 497  03c0 0954          	dc.w	2388
 498  03c2 095a          	dc.w	2394
 499  03c4 095f          	dc.w	2399
 500  03c6 0965          	dc.w	2405
 501  03c8 096b          	dc.w	2411
 502  03ca 0970          	dc.w	2416
 503  03cc 0976          	dc.w	2422
 504  03ce 097b          	dc.w	2427
 505  03d0 0981          	dc.w	2433
 506  03d2 0987          	dc.w	2439
 507  03d4 098c          	dc.w	2444
 508  03d6 0992          	dc.w	2450
 509  03d8 0997          	dc.w	2455
 510  03da 099d          	dc.w	2461
 511  03dc 09a3          	dc.w	2467
 512  03de 09a8          	dc.w	2472
 513  03e0 09ae          	dc.w	2478
 514  03e2 09b3          	dc.w	2483
 515  03e4 09b9          	dc.w	2489
 516  03e6 09be          	dc.w	2494
 517  03e8 09c4          	dc.w	2500
 518  03ea 09ca          	dc.w	2506
 519  03ec 09cf          	dc.w	2511
 520  03ee 09d5          	dc.w	2517
 521  03f0 09da          	dc.w	2522
 522  03f2 09e0          	dc.w	2528
 523  03f4 09e5          	dc.w	2533
 524  03f6 09eb          	dc.w	2539
 525  03f8 09f0          	dc.w	2544
 526  03fa 09f6          	dc.w	2550
 527  03fc 09fb          	dc.w	2555
 528  03fe 0a01          	dc.w	2561
 529  0400 0a06          	dc.w	2566
 530  0402 0a0c          	dc.w	2572
 531  0404 0a11          	dc.w	2577
 532  0406 0a17          	dc.w	2583
 533  0408 0a1c          	dc.w	2588
 534  040a 0a22          	dc.w	2594
 535  040c 0a27          	dc.w	2599
 536  040e 0a2d          	dc.w	2605
 537  0410 0a32          	dc.w	2610
 538  0412 0a38          	dc.w	2616
 539  0414 0a3d          	dc.w	2621
 540  0416 0a43          	dc.w	2627
 541  0418 0a48          	dc.w	2632
 542  041a 0a4e          	dc.w	2638
 543  041c 0a53          	dc.w	2643
 544  041e 0a58          	dc.w	2648
 545  0420 0a5e          	dc.w	2654
 546  0422 0a63          	dc.w	2659
 547  0424 0a69          	dc.w	2665
 548  0426 0a6e          	dc.w	2670
 549  0428 0a74          	dc.w	2676
 550  042a 0a79          	dc.w	2681
 551  042c 0a7e          	dc.w	2686
 552  042e 0a84          	dc.w	2692
 553  0430 0a89          	dc.w	2697
 554  0432 0a8f          	dc.w	2703
 555  0434 0a94          	dc.w	2708
 556  0436 0a99          	dc.w	2713
 557  0438 0a9f          	dc.w	2719
 558  043a 0aa4          	dc.w	2724
 559  043c 0aa9          	dc.w	2729
 560  043e 0aaf          	dc.w	2735
 561  0440 0ab4          	dc.w	2740
 562  0442 0ab9          	dc.w	2745
 563  0444 0abf          	dc.w	2751
 564  0446 0ac4          	dc.w	2756
 565  0448 0ac9          	dc.w	2761
 566  044a 0acf          	dc.w	2767
 567  044c 0ad4          	dc.w	2772
 568  044e 0ad9          	dc.w	2777
 569  0450 0adf          	dc.w	2783
 570  0452 0ae4          	dc.w	2788
 571  0454 0ae9          	dc.w	2793
 572  0456 0aef          	dc.w	2799
 573  0458 0af4          	dc.w	2804
 574  045a 0af9          	dc.w	2809
 575  045c 0afe          	dc.w	2814
 576  045e 0b04          	dc.w	2820
 577  0460 0b09          	dc.w	2825
 578  0462 0b0e          	dc.w	2830
 579  0464 0b13          	dc.w	2835
 580  0466 0b19          	dc.w	2841
 581  0468 0b1e          	dc.w	2846
 582  046a 0b23          	dc.w	2851
 583  046c 0b28          	dc.w	2856
 584  046e 0b2d          	dc.w	2861
 585  0470 0b33          	dc.w	2867
 586  0472 0b38          	dc.w	2872
 587  0474 0b3d          	dc.w	2877
 588  0476 0b42          	dc.w	2882
 589  0478 0b47          	dc.w	2887
 590  047a 0b4d          	dc.w	2893
 591  047c 0b52          	dc.w	2898
 592  047e 0b57          	dc.w	2903
 593  0480 0b5c          	dc.w	2908
 594  0482 0b61          	dc.w	2913
 595  0484 0b66          	dc.w	2918
 596  0486 0b6b          	dc.w	2923
 597  0488 0b70          	dc.w	2928
 598  048a 0b76          	dc.w	2934
 599  048c 0b7b          	dc.w	2939
 600  048e 0b80          	dc.w	2944
 601  0490 0b85          	dc.w	2949
 602  0492 0b8a          	dc.w	2954
 603  0494 0b8f          	dc.w	2959
 604  0496 0b94          	dc.w	2964
 605  0498 0b99          	dc.w	2969
 606  049a 0b9e          	dc.w	2974
 607  049c 0ba3          	dc.w	2979
 608  049e 0ba8          	dc.w	2984
 609  04a0 0bad          	dc.w	2989
 610  04a2 0bb2          	dc.w	2994
 611  04a4 0bb7          	dc.w	2999
 612  04a6 0bbc          	dc.w	3004
 613  04a8 0bc1          	dc.w	3009
 614  04aa 0bc6          	dc.w	3014
 615  04ac 0bcb          	dc.w	3019
 616  04ae 0bd0          	dc.w	3024
 617  04b0 0bd5          	dc.w	3029
 618  04b2 0bda          	dc.w	3034
 619  04b4 0bdf          	dc.w	3039
 620  04b6 0be4          	dc.w	3044
 621  04b8 0be9          	dc.w	3049
 622  04ba 0bee          	dc.w	3054
 623  04bc 0bf3          	dc.w	3059
 624  04be 0bf8          	dc.w	3064
 625  04c0 0bfd          	dc.w	3069
 626  04c2 0c02          	dc.w	3074
 627  04c4 0c07          	dc.w	3079
 628  04c6 0c0b          	dc.w	3083
 629  04c8 0c10          	dc.w	3088
 630  04ca 0c15          	dc.w	3093
 631  04cc 0c1a          	dc.w	3098
 632  04ce 0c1f          	dc.w	3103
 633  04d0 0c24          	dc.w	3108
 634  04d2 0c29          	dc.w	3113
 635  04d4 0c2d          	dc.w	3117
 636  04d6 0c32          	dc.w	3122
 637  04d8 0c37          	dc.w	3127
 638  04da 0c3c          	dc.w	3132
 639  04dc 0c41          	dc.w	3137
 640  04de 0c45          	dc.w	3141
 641  04e0 0c4a          	dc.w	3146
 642  04e2 0c4f          	dc.w	3151
 643  04e4 0c54          	dc.w	3156
 644  04e6 0c59          	dc.w	3161
 645  04e8 0c5d          	dc.w	3165
 646  04ea 0c62          	dc.w	3170
 647  04ec 0c67          	dc.w	3175
 648  04ee 0c6b          	dc.w	3179
 649  04f0 0c70          	dc.w	3184
 650  04f2 0c75          	dc.w	3189
 651  04f4 0c7a          	dc.w	3194
 652  04f6 0c7e          	dc.w	3198
 653  04f8 0c83          	dc.w	3203
 654  04fa 0c88          	dc.w	3208
 655  04fc 0c8c          	dc.w	3212
 656  04fe 0c91          	dc.w	3217
 657  0500 0c96          	dc.w	3222
 658  0502 0c9a          	dc.w	3226
 659  0504 0c9f          	dc.w	3231
 660  0506 0ca4          	dc.w	3236
 661  0508 0ca8          	dc.w	3240
 662  050a 0cad          	dc.w	3245
 663  050c 0cb1          	dc.w	3249
 664  050e 0cb6          	dc.w	3254
 665  0510 0cbb          	dc.w	3259
 666  0512 0cbf          	dc.w	3263
 667  0514 0cc4          	dc.w	3268
 668  0516 0cc8          	dc.w	3272
 669  0518 0ccd          	dc.w	3277
 670  051a 0cd1          	dc.w	3281
 671  051c 0cd6          	dc.w	3286
 672  051e 0cda          	dc.w	3290
 673  0520 0cdf          	dc.w	3295
 674  0522 0ce3          	dc.w	3299
 675  0524 0ce8          	dc.w	3304
 676  0526 0cec          	dc.w	3308
 677  0528 0cf1          	dc.w	3313
 678  052a 0cf5          	dc.w	3317
 679  052c 0cfa          	dc.w	3322
 680  052e 0cfe          	dc.w	3326
 681  0530 0d03          	dc.w	3331
 682  0532 0d07          	dc.w	3335
 683  0534 0d0c          	dc.w	3340
 684  0536 0d10          	dc.w	3344
 685  0538 0d14          	dc.w	3348
 686  053a 0d19          	dc.w	3353
 687  053c 0d1d          	dc.w	3357
 688  053e 0d22          	dc.w	3362
 689  0540 0d26          	dc.w	3366
 690  0542 0d2a          	dc.w	3370
 691  0544 0d2f          	dc.w	3375
 692  0546 0d33          	dc.w	3379
 693  0548 0d37          	dc.w	3383
 694  054a 0d3c          	dc.w	3388
 695  054c 0d40          	dc.w	3392
 696  054e 0d44          	dc.w	3396
 697  0550 0d49          	dc.w	3401
 698  0552 0d4d          	dc.w	3405
 699  0554 0d51          	dc.w	3409
 700  0556 0d55          	dc.w	3413
 701  0558 0d5a          	dc.w	3418
 702  055a 0d5e          	dc.w	3422
 703  055c 0d62          	dc.w	3426
 704  055e 0d66          	dc.w	3430
 705  0560 0d6b          	dc.w	3435
 706  0562 0d6f          	dc.w	3439
 707  0564 0d73          	dc.w	3443
 708  0566 0d77          	dc.w	3447
 709  0568 0d7c          	dc.w	3452
 710  056a 0d80          	dc.w	3456
 711  056c 0d84          	dc.w	3460
 712  056e 0d88          	dc.w	3464
 713  0570 0d8c          	dc.w	3468
 714  0572 0d90          	dc.w	3472
 715  0574 0d95          	dc.w	3477
 716  0576 0d99          	dc.w	3481
 717  0578 0d9d          	dc.w	3485
 718  057a 0da1          	dc.w	3489
 719  057c 0da5          	dc.w	3493
 720  057e 0da9          	dc.w	3497
 721  0580 0dad          	dc.w	3501
 722  0582 0db1          	dc.w	3505
 723  0584 0db5          	dc.w	3509
 724  0586 0db9          	dc.w	3513
 725  0588 0dbd          	dc.w	3517
 726  058a 0dc2          	dc.w	3522
 727  058c 0dc6          	dc.w	3526
 728  058e 0dca          	dc.w	3530
 729  0590 0dce          	dc.w	3534
 730  0592 0dd2          	dc.w	3538
 731  0594 0dd6          	dc.w	3542
 732  0596 0dda          	dc.w	3546
 733  0598 0dde          	dc.w	3550
 734  059a 0de2          	dc.w	3554
 735  059c 0de6          	dc.w	3558
 736  059e 0de9          	dc.w	3561
 737  05a0 0ded          	dc.w	3565
 738  05a2 0df1          	dc.w	3569
 739  05a4 0df5          	dc.w	3573
 740  05a6 0df9          	dc.w	3577
 741  05a8 0dfd          	dc.w	3581
 742  05aa 0e01          	dc.w	3585
 743  05ac 0e05          	dc.w	3589
 744  05ae 0e09          	dc.w	3593
 745  05b0 0e0d          	dc.w	3597
 746  05b2 0e11          	dc.w	3601
 747  05b4 0e14          	dc.w	3604
 748  05b6 0e18          	dc.w	3608
 749  05b8 0e1c          	dc.w	3612
 750  05ba 0e20          	dc.w	3616
 751  05bc 0e24          	dc.w	3620
 752  05be 0e28          	dc.w	3624
 753  05c0 0e2b          	dc.w	3627
 754  05c2 0e2f          	dc.w	3631
 755  05c4 0e33          	dc.w	3635
 756  05c6 0e37          	dc.w	3639
 757  05c8 0e3a          	dc.w	3642
 758  05ca 0e3e          	dc.w	3646
 759  05cc 0e42          	dc.w	3650
 760  05ce 0e46          	dc.w	3654
 761  05d0 0e49          	dc.w	3657
 762  05d2 0e4d          	dc.w	3661
 763  05d4 0e51          	dc.w	3665
 764  05d6 0e55          	dc.w	3669
 765  05d8 0e58          	dc.w	3672
 766  05da 0e5c          	dc.w	3676
 767  05dc 0e60          	dc.w	3680
 768  05de 0e63          	dc.w	3683
 769  05e0 0e67          	dc.w	3687
 770  05e2 0e6b          	dc.w	3691
 771  05e4 0e6e          	dc.w	3694
 772  05e6 0e72          	dc.w	3698
 773  05e8 0e76          	dc.w	3702
 774  05ea 0e79          	dc.w	3705
 775  05ec 0e7d          	dc.w	3709
 776  05ee 0e80          	dc.w	3712
 777  05f0 0e84          	dc.w	3716
 778  05f2 0e88          	dc.w	3720
 779  05f4 0e8b          	dc.w	3723
 780  05f6 0e8f          	dc.w	3727
 781  05f8 0e92          	dc.w	3730
 782  05fa 0e96          	dc.w	3734
 783  05fc 0e99          	dc.w	3737
 784  05fe 0e9d          	dc.w	3741
 785  0600 0ea0          	dc.w	3744
 786  0602 0ea4          	dc.w	3748
 787  0604 0ea7          	dc.w	3751
 788  0606 0eab          	dc.w	3755
 789  0608 0eae          	dc.w	3758
 790  060a 0eb2          	dc.w	3762
 791  060c 0eb5          	dc.w	3765
 792  060e 0eb9          	dc.w	3769
 793  0610 0ebc          	dc.w	3772
 794  0612 0ec0          	dc.w	3776
 795  0614 0ec3          	dc.w	3779
 796  0616 0ec7          	dc.w	3783
 797  0618 0eca          	dc.w	3786
 798  061a 0ecd          	dc.w	3789
 799  061c 0ed1          	dc.w	3793
 800  061e 0ed4          	dc.w	3796
 801  0620 0ed8          	dc.w	3800
 802  0622 0edb          	dc.w	3803
 803  0624 0ede          	dc.w	3806
 804  0626 0ee2          	dc.w	3810
 805  0628 0ee5          	dc.w	3813
 806  062a 0ee8          	dc.w	3816
 807  062c 0eec          	dc.w	3820
 808  062e 0eef          	dc.w	3823
 809  0630 0ef2          	dc.w	3826
 810  0632 0ef6          	dc.w	3830
 811  0634 0ef9          	dc.w	3833
 812  0636 0efc          	dc.w	3836
 813  0638 0f00          	dc.w	3840
 814  063a 0f03          	dc.w	3843
 815  063c 0f06          	dc.w	3846
 816  063e 0f09          	dc.w	3849
 817  0640 0f0d          	dc.w	3853
 818  0642 0f10          	dc.w	3856
 819  0644 0f13          	dc.w	3859
 820  0646 0f16          	dc.w	3862
 821  0648 0f19          	dc.w	3865
 822  064a 0f1d          	dc.w	3869
 823  064c 0f20          	dc.w	3872
 824  064e 0f23          	dc.w	3875
 825  0650 0f26          	dc.w	3878
 826  0652 0f29          	dc.w	3881
 827  0654 0f2d          	dc.w	3885
 828  0656 0f30          	dc.w	3888
 829  0658 0f33          	dc.w	3891
 830  065a 0f36          	dc.w	3894
 831  065c 0f39          	dc.w	3897
 832  065e 0f3c          	dc.w	3900
 833  0660 0f3f          	dc.w	3903
 834  0662 0f42          	dc.w	3906
 835  0664 0f46          	dc.w	3910
 836  0666 0f49          	dc.w	3913
 837  0668 0f4c          	dc.w	3916
 838  066a 0f4f          	dc.w	3919
 839  066c 0f52          	dc.w	3922
 840  066e 0f55          	dc.w	3925
 841  0670 0f58          	dc.w	3928
 842  0672 0f5b          	dc.w	3931
 843  0674 0f5e          	dc.w	3934
 844  0676 0f61          	dc.w	3937
 845  0678 0f64          	dc.w	3940
 846  067a 0f67          	dc.w	3943
 847  067c 0f6a          	dc.w	3946
 848  067e 0f6d          	dc.w	3949
 849  0680 0f70          	dc.w	3952
 850  0682 0f73          	dc.w	3955
 851  0684 0f76          	dc.w	3958
 852  0686 0f79          	dc.w	3961
 853  0688 0f7c          	dc.w	3964
 854  068a 0f7f          	dc.w	3967
 855  068c 0f82          	dc.w	3970
 856  068e 0f85          	dc.w	3973
 857  0690 0f88          	dc.w	3976
 858  0692 0f8b          	dc.w	3979
 859  0694 0f8d          	dc.w	3981
 860  0696 0f90          	dc.w	3984
 861  0698 0f93          	dc.w	3987
 862  069a 0f96          	dc.w	3990
 863  069c 0f99          	dc.w	3993
 864  069e 0f9c          	dc.w	3996
 865  06a0 0f9f          	dc.w	3999
 866  06a2 0fa2          	dc.w	4002
 867  06a4 0fa4          	dc.w	4004
 868  06a6 0fa7          	dc.w	4007
 869  06a8 0faa          	dc.w	4010
 870  06aa 0fad          	dc.w	4013
 871  06ac 0fb0          	dc.w	4016
 872  06ae 0fb3          	dc.w	4019
 873  06b0 0fb5          	dc.w	4021
 874  06b2 0fb8          	dc.w	4024
 875  06b4 0fbb          	dc.w	4027
 876  06b6 0fbe          	dc.w	4030
 877  06b8 0fc0          	dc.w	4032
 878  06ba 0fc3          	dc.w	4035
 879  06bc 0fc6          	dc.w	4038
 880  06be 0fc9          	dc.w	4041
 881  06c0 0fcb          	dc.w	4043
 882  06c2 0fce          	dc.w	4046
 883  06c4 0fd1          	dc.w	4049
 884  06c6 0fd4          	dc.w	4052
 885  06c8 0fd6          	dc.w	4054
 886  06ca 0fd9          	dc.w	4057
 887  06cc 0fdc          	dc.w	4060
 888  06ce 0fde          	dc.w	4062
 889  06d0 0fe1          	dc.w	4065
 890  06d2 0fe4          	dc.w	4068
 891  06d4 0fe6          	dc.w	4070
 892  06d6 0fe9          	dc.w	4073
 893  06d8 0fec          	dc.w	4076
 894  06da 0fee          	dc.w	4078
 895  06dc 0ff1          	dc.w	4081
 896  06de 0ff4          	dc.w	4084
 897  06e0 0ff6          	dc.w	4086
 898  06e2 0ff9          	dc.w	4089
 899  06e4 0ffb          	dc.w	4091
 900  06e6 0ffe          	dc.w	4094
 901  06e8 1001          	dc.w	4097
 902  06ea 1003          	dc.w	4099
 903  06ec 1006          	dc.w	4102
 904  06ee 1008          	dc.w	4104
 905  06f0 100b          	dc.w	4107
 906  06f2 100d          	dc.w	4109
 907  06f4 1010          	dc.w	4112
 908  06f6 1012          	dc.w	4114
 909  06f8 1015          	dc.w	4117
 910  06fa 1017          	dc.w	4119
 911  06fc 101a          	dc.w	4122
 912  06fe 101c          	dc.w	4124
 913  0700 101f          	dc.w	4127
 914  0702 1021          	dc.w	4129
 915  0704 1024          	dc.w	4132
 916  0706 1026          	dc.w	4134
 917  0708 1029          	dc.w	4137
 918  070a 102b          	dc.w	4139
 919  070c 102e          	dc.w	4142
 920  070e 1030          	dc.w	4144
 921  0710 1033          	dc.w	4147
 922  0712 1035          	dc.w	4149
 923  0714 1038          	dc.w	4152
 924  0716 103a          	dc.w	4154
 925  0718 103c          	dc.w	4156
 926  071a 103f          	dc.w	4159
 927  071c 1041          	dc.w	4161
 928  071e 1044          	dc.w	4164
 929  0720 1046          	dc.w	4166
 930  0722 1048          	dc.w	4168
 931  0724 104b          	dc.w	4171
 932  0726 104d          	dc.w	4173
 933  0728 104f          	dc.w	4175
 934  072a 1052          	dc.w	4178
 935  072c 1054          	dc.w	4180
 936  072e 1057          	dc.w	4183
 937  0730 1059          	dc.w	4185
 938  0732 105b          	dc.w	4187
 939  0734 105d          	dc.w	4189
 940  0736 1060          	dc.w	4192
 941  0738 1062          	dc.w	4194
 942  073a 1064          	dc.w	4196
 943  073c 1067          	dc.w	4199
 944  073e 1069          	dc.w	4201
 945  0740 106b          	dc.w	4203
 946  0742 106e          	dc.w	4206
 947  0744 1070          	dc.w	4208
 948  0746 1072          	dc.w	4210
 949  0748 1074          	dc.w	4212
 950  074a 1077          	dc.w	4215
 951  074c 1079          	dc.w	4217
 952  074e 107b          	dc.w	4219
 953  0750 107d          	dc.w	4221
 954  0752 107f          	dc.w	4223
 955  0754 1082          	dc.w	4226
 956  0756 1084          	dc.w	4228
 957  0758 1086          	dc.w	4230
 958  075a 1088          	dc.w	4232
 959  075c 108a          	dc.w	4234
 960  075e 108d          	dc.w	4237
 961  0760 108f          	dc.w	4239
 962  0762 1091          	dc.w	4241
 963  0764 1093          	dc.w	4243
 964  0766 1095          	dc.w	4245
 965  0768 1097          	dc.w	4247
 966  076a 109a          	dc.w	4250
 967  076c 109c          	dc.w	4252
 968  076e 109e          	dc.w	4254
 969  0770 10a0          	dc.w	4256
 970  0772 10a2          	dc.w	4258
 971  0774 10a4          	dc.w	4260
 972  0776 10a6          	dc.w	4262
 973  0778 10a8          	dc.w	4264
 974  077a 10ab          	dc.w	4267
 975  077c 10ad          	dc.w	4269
 976  077e 10af          	dc.w	4271
 977  0780 10b1          	dc.w	4273
 978  0782 10b3          	dc.w	4275
 979  0784 10b5          	dc.w	4277
 980  0786 10b7          	dc.w	4279
 981  0788 10b9          	dc.w	4281
 982  078a 10bb          	dc.w	4283
 983  078c 10bd          	dc.w	4285
 984  078e 10bf          	dc.w	4287
 985  0790 10c1          	dc.w	4289
 986  0792 10c3          	dc.w	4291
 987  0794 10c5          	dc.w	4293
 988  0796 10c7          	dc.w	4295
 989  0798 10c9          	dc.w	4297
 990  079a 10cb          	dc.w	4299
 991  079c 10cd          	dc.w	4301
 992  079e 10cf          	dc.w	4303
 993  07a0 10d1          	dc.w	4305
 994  07a2 10d3          	dc.w	4307
 995  07a4 10d5          	dc.w	4309
 996  07a6 10d7          	dc.w	4311
 997  07a8 10d9          	dc.w	4313
 998  07aa 10db          	dc.w	4315
 999  07ac 10dd          	dc.w	4317
1000  07ae 10df          	dc.w	4319
1001  07b0 10e1          	dc.w	4321
1002  07b2 10e3          	dc.w	4323
1003  07b4 10e5          	dc.w	4325
1004  07b6 10e7          	dc.w	4327
1005  07b8 10e8          	dc.w	4328
1006  07ba 10ea          	dc.w	4330
1007  07bc 10ec          	dc.w	4332
1008  07be 10ee          	dc.w	4334
1009  07c0 10f0          	dc.w	4336
1010  07c2 10f2          	dc.w	4338
1011  07c4 10f4          	dc.w	4340
1012  07c6 10f6          	dc.w	4342
1013  07c8 10f8          	dc.w	4344
1014  07ca 10f9          	dc.w	4345
1015  07cc 10fb          	dc.w	4347
1016  07ce 10fd          	dc.w	4349
1017  07d0 10ff          	dc.w	4351
1018  07d2 1101          	dc.w	4353
1019  07d4 1103          	dc.w	4355
1020  07d6 1104          	dc.w	4356
1021  07d8 1106          	dc.w	4358
1022  07da 1108          	dc.w	4360
1023  07dc 110a          	dc.w	4362
1024  07de 110c          	dc.w	4364
1025  07e0 110e          	dc.w	4366
1026  07e2 110f          	dc.w	4367
1027  07e4 1111          	dc.w	4369
1028  07e6 1113          	dc.w	4371
1029  07e8 1115          	dc.w	4373
1030  07ea 1116          	dc.w	4374
1031  07ec 1118          	dc.w	4376
1032  07ee 111a          	dc.w	4378
1033  07f0 111c          	dc.w	4380
1034  07f2 111d          	dc.w	4381
1035  07f4 111f          	dc.w	4383
1036  07f6 1121          	dc.w	4385
1037  07f8 1123          	dc.w	4387
1038  07fa 1124          	dc.w	4388
1039  07fc 1126          	dc.w	4390
1040  07fe 1128          	dc.w	4392
1041  0800 112a          	dc.w	4394
1042  0802 112b          	dc.w	4395
1043  0804 112d          	dc.w	4397
1044  0806 112f          	dc.w	4399
1045  0808 1130          	dc.w	4400
1046  080a 1132          	dc.w	4402
1047  080c 1134          	dc.w	4404
1048  080e 1135          	dc.w	4405
1049  0810 1137          	dc.w	4407
1050  0812 1139          	dc.w	4409
1051  0814 113a          	dc.w	4410
1052  0816 113c          	dc.w	4412
1053  0818 113e          	dc.w	4414
1054  081a 113f          	dc.w	4415
1055  081c 1141          	dc.w	4417
1056  081e 1143          	dc.w	4419
1057  0820 1144          	dc.w	4420
1058  0822 1146          	dc.w	4422
1059  0824 1148          	dc.w	4424
1060  0826 1149          	dc.w	4425
1061  0828 114b          	dc.w	4427
1062  082a 114c          	dc.w	4428
1063  082c 114e          	dc.w	4430
1064  082e 1150          	dc.w	4432
1065  0830 1151          	dc.w	4433
1066  0832 1153          	dc.w	4435
1067  0834 1154          	dc.w	4436
1068  0836 1156          	dc.w	4438
1069  0838 1158          	dc.w	4440
1070  083a 1159          	dc.w	4441
1071  083c 115b          	dc.w	4443
1072  083e 115c          	dc.w	4444
1073  0840 115e          	dc.w	4446
1074  0842 115f          	dc.w	4447
1075  0844 1161          	dc.w	4449
1076  0846 1162          	dc.w	4450
1077  0848 1164          	dc.w	4452
1078  084a 1166          	dc.w	4454
1079  084c 1167          	dc.w	4455
1080  084e 1169          	dc.w	4457
1081  0850 116a          	dc.w	4458
1082  0852 116c          	dc.w	4460
1083  0854 116d          	dc.w	4461
1084  0856 116f          	dc.w	4463
1085  0858 1170          	dc.w	4464
1086  085a 1172          	dc.w	4466
1087  085c 1173          	dc.w	4467
1088  085e 1175          	dc.w	4469
1089  0860 1176          	dc.w	4470
1090  0862 1178          	dc.w	4472
1091  0864 1179          	dc.w	4473
1092  0866 117b          	dc.w	4475
1093  0868 117c          	dc.w	4476
1094  086a 117d          	dc.w	4477
1095  086c 117f          	dc.w	4479
1096  086e 1180          	dc.w	4480
1097  0870 1182          	dc.w	4482
1098  0872 1183          	dc.w	4483
1099  0874 1185          	dc.w	4485
1100  0876 1186          	dc.w	4486
1101  0878 1188          	dc.w	4488
1102  087a 1189          	dc.w	4489
1103  087c 118a          	dc.w	4490
1104  087e 118c          	dc.w	4492
1105  0880 118d          	dc.w	4493
1106  0882 118f          	dc.w	4495
1107  0884 1190          	dc.w	4496
1108  0886 1192          	dc.w	4498
1109  0888 1193          	dc.w	4499
1110  088a 1194          	dc.w	4500
1111  088c 1196          	dc.w	4502
1112  088e 1197          	dc.w	4503
1113  0890 1198          	dc.w	4504
1114  0892 119a          	dc.w	4506
1115  0894 119b          	dc.w	4507
1116  0896 119d          	dc.w	4509
1117  0898 119e          	dc.w	4510
1118  089a 119f          	dc.w	4511
1119  089c 11a1          	dc.w	4513
1120  089e 11a2          	dc.w	4514
1121  08a0 11a3          	dc.w	4515
1122  08a2 11a5          	dc.w	4517
1123  08a4 11a6          	dc.w	4518
1124  08a6 11a7          	dc.w	4519
1125  08a8 11a9          	dc.w	4521
1126  08aa 11aa          	dc.w	4522
1127  08ac 11ab          	dc.w	4523
1128  08ae 11ad          	dc.w	4525
1129  08b0 11ae          	dc.w	4526
1130  08b2 11af          	dc.w	4527
1131  08b4 11b1          	dc.w	4529
1132  08b6 11b2          	dc.w	4530
1133  08b8 11b3          	dc.w	4531
1134  08ba 11b4          	dc.w	4532
1135  08bc 11b6          	dc.w	4534
1136  08be 11b7          	dc.w	4535
1137  08c0 11b8          	dc.w	4536
1138  08c2 11ba          	dc.w	4538
1139  08c4 11bb          	dc.w	4539
1140  08c6 11bc          	dc.w	4540
1141  08c8 11bd          	dc.w	4541
1142  08ca 11bf          	dc.w	4543
1143  08cc 11c0          	dc.w	4544
1144  08ce 11c1          	dc.w	4545
1145  08d0 11c2          	dc.w	4546
1146  08d2 11c4          	dc.w	4548
1147  08d4 11c5          	dc.w	4549
1148  08d6 11c6          	dc.w	4550
1149  08d8 11c7          	dc.w	4551
1150  08da 11c9          	dc.w	4553
1151  08dc 11ca          	dc.w	4554
1152  08de 11cb          	dc.w	4555
1153  08e0 11cc          	dc.w	4556
1154  08e2 11ce          	dc.w	4558
1155  08e4 11cf          	dc.w	4559
1156  08e6 11d0          	dc.w	4560
1157  08e8 11d1          	dc.w	4561
1158  08ea 11d2          	dc.w	4562
1159  08ec 11d4          	dc.w	4564
1160  08ee 11d5          	dc.w	4565
1161  08f0 11d6          	dc.w	4566
1162  08f2 11d7          	dc.w	4567
1163  08f4 11d8          	dc.w	4568
1164  08f6 11da          	dc.w	4570
1165  08f8 11db          	dc.w	4571
1166  08fa 11dc          	dc.w	4572
1167  08fc 11dd          	dc.w	4573
1168  08fe 11de          	dc.w	4574
1169  0900 11df          	dc.w	4575
1170  0902 11e1          	dc.w	4577
1171  0904 11e2          	dc.w	4578
1172  0906 11e3          	dc.w	4579
1173  0908 11e4          	dc.w	4580
1174  090a 11e5          	dc.w	4581
1175  090c 11e6          	dc.w	4582
1176  090e 11e7          	dc.w	4583
1177  0910 11e9          	dc.w	4585
1178  0912 11ea          	dc.w	4586
1179  0914 11eb          	dc.w	4587
1180  0916 11ec          	dc.w	4588
1181  0918 11ed          	dc.w	4589
1182  091a 11ee          	dc.w	4590
1183  091c 11ef          	dc.w	4591
1184  091e 11f0          	dc.w	4592
1185  0920 11f2          	dc.w	4594
1186  0922 11f3          	dc.w	4595
1187  0924 11f4          	dc.w	4596
1188  0926 11f5          	dc.w	4597
1189  0928 11f6          	dc.w	4598
1190  092a 11f7          	dc.w	4599
1191  092c 11f8          	dc.w	4600
1192  092e 11f9          	dc.w	4601
1193  0930 11fa          	dc.w	4602
1194  0932 11fb          	dc.w	4603
1195  0934 11fc          	dc.w	4604
1196  0936 11fe          	dc.w	4606
1197  0938 11ff          	dc.w	4607
1198  093a 1200          	dc.w	4608
1199  093c 1201          	dc.w	4609
1200  093e 1202          	dc.w	4610
1201  0940 1203          	dc.w	4611
1202  0942 1204          	dc.w	4612
1203  0944 1205          	dc.w	4613
1204  0946 1206          	dc.w	4614
1205  0948 1207          	dc.w	4615
1206  094a 1208          	dc.w	4616
1207  094c 1209          	dc.w	4617
1208  094e 120a          	dc.w	4618
1209  0950 120b          	dc.w	4619
1210  0952 120c          	dc.w	4620
1211  0954 120d          	dc.w	4621
1212  0956 120e          	dc.w	4622
1213  0958 120f          	dc.w	4623
1214  095a 1210          	dc.w	4624
1215  095c 1211          	dc.w	4625
1216  095e 1212          	dc.w	4626
1217  0960 1213          	dc.w	4627
1218  0962 1214          	dc.w	4628
1219  0964 1215          	dc.w	4629
1220  0966 1216          	dc.w	4630
1221  0968 1217          	dc.w	4631
1222  096a 1218          	dc.w	4632
1223  096c 1219          	dc.w	4633
1224  096e 121a          	dc.w	4634
1225  0970 121b          	dc.w	4635
1226  0972 121c          	dc.w	4636
1227  0974 121d          	dc.w	4637
1228  0976 121e          	dc.w	4638
1229  0978 121f          	dc.w	4639
1230  097a 1220          	dc.w	4640
1231  097c 1221          	dc.w	4641
1232  097e 1222          	dc.w	4642
1233  0980 1223          	dc.w	4643
1234  0982 1224          	dc.w	4644
1235  0984 1225          	dc.w	4645
1236  0986 1226          	dc.w	4646
1237  0988 1227          	dc.w	4647
1238  098a 1228          	dc.w	4648
1239  098c 1229          	dc.w	4649
1240  098e 122a          	dc.w	4650
1241  0990 122b          	dc.w	4651
1242  0992 122c          	dc.w	4652
1243  0994 122c          	dc.w	4652
1244  0996 122d          	dc.w	4653
1245  0998 122e          	dc.w	4654
1246  099a 122f          	dc.w	4655
1247  099c 1230          	dc.w	4656
1248  099e 1231          	dc.w	4657
1249  09a0 1232          	dc.w	4658
1250  09a2 1233          	dc.w	4659
1251  09a4 1234          	dc.w	4660
1252  09a6 1235          	dc.w	4661
1253  09a8 1236          	dc.w	4662
1254  09aa 1237          	dc.w	4663
1255  09ac 1237          	dc.w	4663
1256  09ae 1238          	dc.w	4664
1257  09b0 1239          	dc.w	4665
1258  09b2 123a          	dc.w	4666
1259  09b4 123b          	dc.w	4667
1260  09b6 123c          	dc.w	4668
1261  09b8 123d          	dc.w	4669
1262  09ba 123e          	dc.w	4670
1263  09bc 123f          	dc.w	4671
1264  09be 123f          	dc.w	4671
1265  09c0 1240          	dc.w	4672
1266  09c2 1241          	dc.w	4673
1267  09c4 1242          	dc.w	4674
1268  09c6 1243          	dc.w	4675
1269  09c8 1244          	dc.w	4676
1270  09ca 1245          	dc.w	4677
1271  09cc 1245          	dc.w	4677
1272  09ce 1246          	dc.w	4678
1273  09d0 1247          	dc.w	4679
1274  09d2 1248          	dc.w	4680
1275  09d4 1249          	dc.w	4681
1276  09d6 124a          	dc.w	4682
1277  09d8 124a          	dc.w	4682
1278  09da 124b          	dc.w	4683
1279  09dc 124c          	dc.w	4684
1280  09de 124d          	dc.w	4685
1281  09e0 124e          	dc.w	4686
1282  09e2 124f          	dc.w	4687
1283  09e4 124f          	dc.w	4687
1284  09e6 1250          	dc.w	4688
1285  09e8 1251          	dc.w	4689
1286  09ea 1252          	dc.w	4690
1287  09ec 1253          	dc.w	4691
1288  09ee 1254          	dc.w	4692
1289  09f0 1254          	dc.w	4692
1290  09f2 1255          	dc.w	4693
1291  09f4 1256          	dc.w	4694
1292  09f6 1257          	dc.w	4695
1293  09f8 1258          	dc.w	4696
1294  09fa 1258          	dc.w	4696
1295  09fc 1259          	dc.w	4697
1296  09fe 125a          	dc.w	4698
1297  0a00 125b          	dc.w	4699
1298  0a02 125c          	dc.w	4700
1299  0a04 125c          	dc.w	4700
1300  0a06 125d          	dc.w	4701
1301  0a08 125e          	dc.w	4702
1302  0a0a 125f          	dc.w	4703
1303  0a0c 125f          	dc.w	4703
1304  0a0e 1260          	dc.w	4704
1305  0a10 1261          	dc.w	4705
1306  0a12 1262          	dc.w	4706
1307  0a14 1263          	dc.w	4707
1308  0a16 1263          	dc.w	4707
1309  0a18 1264          	dc.w	4708
1310  0a1a 1265          	dc.w	4709
1311  0a1c 1266          	dc.w	4710
1312  0a1e 1266          	dc.w	4710
1313  0a20 1267          	dc.w	4711
1314  0a22 1268          	dc.w	4712
1315  0a24 1269          	dc.w	4713
1316  0a26 1269          	dc.w	4713
1317  0a28 126a          	dc.w	4714
1318  0a2a 126b          	dc.w	4715
1319  0a2c 126c          	dc.w	4716
1320  0a2e 126c          	dc.w	4716
1321  0a30 126d          	dc.w	4717
1322  0a32 126e          	dc.w	4718
1323  0a34 126f          	dc.w	4719
1324  0a36 126f          	dc.w	4719
1325  0a38 1270          	dc.w	4720
1326  0a3a 1271          	dc.w	4721
1327  0a3c 1271          	dc.w	4721
1328  0a3e 1272          	dc.w	4722
1329  0a40 1273          	dc.w	4723
1330  0a42 1274          	dc.w	4724
1331  0a44 1274          	dc.w	4724
1332  0a46 1275          	dc.w	4725
1333  0a48 1276          	dc.w	4726
1334  0a4a 1276          	dc.w	4726
1335  0a4c 1277          	dc.w	4727
1336  0a4e 1278          	dc.w	4728
1337  0a50 1279          	dc.w	4729
1338  0a52 1279          	dc.w	4729
1339  0a54 127a          	dc.w	4730
1340  0a56 127b          	dc.w	4731
1341  0a58 127b          	dc.w	4731
1342  0a5a 127c          	dc.w	4732
1343  0a5c 127d          	dc.w	4733
1344  0a5e 127d          	dc.w	4733
1345  0a60 127e          	dc.w	4734
1346  0a62 127f          	dc.w	4735
1347  0a64 127f          	dc.w	4735
1348  0a66 1280          	dc.w	4736
1349  0a68 1281          	dc.w	4737
1350  0a6a 1282          	dc.w	4738
1351  0a6c 1282          	dc.w	4738
1352  0a6e 1283          	dc.w	4739
1353  0a70 1284          	dc.w	4740
1354  0a72 1284          	dc.w	4740
1355  0a74 1285          	dc.w	4741
1356  0a76 1286          	dc.w	4742
1357  0a78 1286          	dc.w	4742
1358  0a7a 1287          	dc.w	4743
1359  0a7c 1288          	dc.w	4744
1360  0a7e 1288          	dc.w	4744
1361  0a80 1289          	dc.w	4745
1362  0a82 1289          	dc.w	4745
1363  0a84 128a          	dc.w	4746
1364  0a86 128b          	dc.w	4747
1365  0a88 128b          	dc.w	4747
1366  0a8a 128c          	dc.w	4748
1367  0a8c 128d          	dc.w	4749
1368  0a8e 128d          	dc.w	4749
1369  0a90 128e          	dc.w	4750
1370  0a92 128f          	dc.w	4751
1371  0a94 128f          	dc.w	4751
1372  0a96 1290          	dc.w	4752
1373  0a98 1291          	dc.w	4753
1374  0a9a 1291          	dc.w	4753
1375  0a9c 1292          	dc.w	4754
1376  0a9e 1292          	dc.w	4754
1377  0aa0 1293          	dc.w	4755
1378  0aa2 1294          	dc.w	4756
1379  0aa4 1294          	dc.w	4756
1380  0aa6 1295          	dc.w	4757
1381  0aa8 1296          	dc.w	4758
1382  0aaa 1296          	dc.w	4758
1383  0aac 1297          	dc.w	4759
1384  0aae 1297          	dc.w	4759
1385  0ab0 1298          	dc.w	4760
1386  0ab2 1299          	dc.w	4761
1387  0ab4 1299          	dc.w	4761
1388  0ab6 129a          	dc.w	4762
1389  0ab8 129a          	dc.w	4762
1390  0aba 129b          	dc.w	4763
1391  0abc 129c          	dc.w	4764
1392  0abe 129c          	dc.w	4764
1393  0ac0 129d          	dc.w	4765
1394  0ac2 129d          	dc.w	4765
1395  0ac4 129e          	dc.w	4766
1396  0ac6 129f          	dc.w	4767
1397  0ac8 129f          	dc.w	4767
1398  0aca 12a0          	dc.w	4768
1399  0acc 12a0          	dc.w	4768
1400  0ace 12a1          	dc.w	4769
1401  0ad0 12a2          	dc.w	4770
1402  0ad2 12a2          	dc.w	4770
1403  0ad4 12a3          	dc.w	4771
1404  0ad6 12a3          	dc.w	4771
1405  0ad8 12a4          	dc.w	4772
1406  0ada 12a4          	dc.w	4772
1407  0adc 12a5          	dc.w	4773
1408  0ade 12a6          	dc.w	4774
1409  0ae0 12a6          	dc.w	4774
1410  0ae2 12a7          	dc.w	4775
1411  0ae4 12a7          	dc.w	4775
1412  0ae6 12a8          	dc.w	4776
1413  0ae8 12a8          	dc.w	4776
1414  0aea 12a9          	dc.w	4777
1415  0aec 12a9          	dc.w	4777
1416  0aee 12aa          	dc.w	4778
1417  0af0 12ab          	dc.w	4779
1418  0af2 12ab          	dc.w	4779
1419  0af4 12ac          	dc.w	4780
1420  0af6 12ac          	dc.w	4780
1421  0af8 12ad          	dc.w	4781
1422  0afa 12ad          	dc.w	4781
1423  0afc 12ae          	dc.w	4782
1424  0afe 12ae          	dc.w	4782
1425  0b00 12af          	dc.w	4783
1426  0b02 12b0          	dc.w	4784
1427  0b04 12b0          	dc.w	4784
1428  0b06 12b1          	dc.w	4785
1429  0b08 12b1          	dc.w	4785
1430  0b0a 12b2          	dc.w	4786
1431  0b0c 12b2          	dc.w	4786
1432  0b0e 12b3          	dc.w	4787
1433  0b10 12b3          	dc.w	4787
1434  0b12 12b4          	dc.w	4788
1435  0b14 12b4          	dc.w	4788
1436  0b16 12b5          	dc.w	4789
1437  0b18 12b5          	dc.w	4789
1438  0b1a 12b6          	dc.w	4790
1439  0b1c 12b6          	dc.w	4790
1440  0b1e 12b7          	dc.w	4791
1441  0b20 12b7          	dc.w	4791
1442  0b22 12b8          	dc.w	4792
1443  0b24 12b8          	dc.w	4792
1444  0b26 12b9          	dc.w	4793
1445  0b28 12ba          	dc.w	4794
1446  0b2a 12ba          	dc.w	4794
1447  0b2c 12bb          	dc.w	4795
1448  0b2e 12bb          	dc.w	4795
1449  0b30 12bc          	dc.w	4796
1450  0b32 12bc          	dc.w	4796
1451  0b34 12bd          	dc.w	4797
1452  0b36 12bd          	dc.w	4797
1453  0b38 12be          	dc.w	4798
1454  0b3a 12be          	dc.w	4798
1455  0b3c 12bf          	dc.w	4799
1456  0b3e 12bf          	dc.w	4799
1457  0b40 12c0          	dc.w	4800
1458  0b42 12c0          	dc.w	4800
1459  0b44 12c1          	dc.w	4801
1460  0b46 12c1          	dc.w	4801
1461  0b48 12c2          	dc.w	4802
1462  0b4a 12c2          	dc.w	4802
1463  0b4c 12c2          	dc.w	4802
1464  0b4e 12c3          	dc.w	4803
1465  0b50 12c3          	dc.w	4803
1466  0b52 12c4          	dc.w	4804
1467  0b54 12c4          	dc.w	4804
1468                     	bsct
1469  0000               _Parameter_Set_Flag:
1470  0000 00            	dc.b	0
1471  0001               _NTC_Conversion_Value:
1472  0001 0000          	dc.w	0
1473  0003               _SUM:
1474  0003 0000          	dc.w	0
1475  0005               _NTC_ADC_Count:
1476  0005 0000          	dc.w	0
1477  0007               _NTC_TEM_Value:
1478  0007 0000          	dc.w	0
1479  0009               _E_Error_Delay_Count:
1480  0009 0000          	dc.w	0
1481  000b               _LP_Error_Delay_Count:
1482  000b 0000          	dc.w	0
1483  000d               _HP_Error_Delay_Count:
1484  000d 0000          	dc.w	0
1485  000f               _RemoteControl_Start_Delay_Count:
1486  000f 0000          	dc.w	0
1487  0011               _RemoteControl_Stop_Delay_Count:
1488  0011 0000          	dc.w	0
1489  0013               _StartStop_KEY_Delay_Count:
1490  0013 0000          	dc.w	0
1491  0015               _Set_KEY_Delay_Count:
1492  0015 0000          	dc.w	0
1493  0017               _Tem_Update_Delay_Count:
1494  0017 0000          	dc.w	0
1495  0019               _Tem_Alarm_Delay_Count:
1496  0019 00000000      	dc.l	0
1497  001d               _Tem_Alarm_Reset_Count:
1498  001d 00000000      	dc.l	0
1499  0021               _Run_LED_Flash_Delay_Count:
1500  0021 00000000      	dc.l	0
1501  0025               _ParameterMode_Autoquit_Count:
1502  0025 00000000      	dc.l	0
1503  0029               _E_Error_Exist_Flag:
1504  0029 00            	dc.b	0
1505  002a               _LP_Error_Exist_Flag:
1506  002a 00            	dc.b	0
1507  002b               _HP_Error_Exist_Flag:
1508  002b 00            	dc.b	0
1509  002c               _TEM_Error_Exist_Flag:
1510  002c 00            	dc.b	0
1511  002d               _Total_Error_Flag:
1512  002d 00            	dc.b	0
1513  002e               _Dig_Switch_Flag:
1514  002e 00            	dc.b	0
1515  002f               _Tem_Update_Flag:
1516  002f 00            	dc.b	0
1517  0030               _Relay_Output_Flag:
1518  0030 00            	dc.b	0
1519  0031               _Run_LED_Flash_Flag:
1520  0031 00            	dc.b	0
1521  0032               _StartStop_KeyLock_Flag:
1522  0032 00            	dc.b	0
1523  0033               _step:
1524  0033 00            	dc.b	0
1554                     ; 1552 INTERRUPT_HANDLER(NonHandledInterrupt, 25)
1554                     ; 1553 {
1555                     .text:	section	.text,new
1556  0000               f_NonHandledInterrupt:
1560                     ; 1557 }
1563  0000 80            	iret
1585                     ; 1565 INTERRUPT_HANDLER_TRAP(TRAP_IRQHandler)
1585                     ; 1566 {
1586                     .text:	section	.text,new
1587  0000               f_TRAP_IRQHandler:
1591                     ; 1570 }
1594  0000 80            	iret
1616                     ; 1577 INTERRUPT_HANDLER(TLI_IRQHandler, 0)
1616                     ; 1578 
1616                     ; 1579 {
1617                     .text:	section	.text,new
1618  0000               f_TLI_IRQHandler:
1622                     ; 1583 }
1625  0000 80            	iret
1647                     ; 1590 INTERRUPT_HANDLER(AWU_IRQHandler, 1)
1647                     ; 1591 {
1648                     .text:	section	.text,new
1649  0000               f_AWU_IRQHandler:
1653                     ; 1595 }
1656  0000 80            	iret
1678                     ; 1602 INTERRUPT_HANDLER(CLK_IRQHandler, 2)
1678                     ; 1603 {
1679                     .text:	section	.text,new
1680  0000               f_CLK_IRQHandler:
1684                     ; 1607 }
1687  0000 80            	iret
1727                     ; 1614 INTERRUPT_HANDLER(EXTI_PORTA_IRQHandler, 3)
1727                     ; 1615 {
1728                     .text:	section	.text,new
1729  0000               f_EXTI_PORTA_IRQHandler:
1731  0000 8a            	push	cc
1732  0001 84            	pop	a
1733  0002 a4bf          	and	a,#191
1734  0004 88            	push	a
1735  0005 86            	pop	cc
1736  0006 3b0002        	push	c_x+2
1737  0009 be00          	ldw	x,c_x
1738  000b 89            	pushw	x
1739  000c 3b0002        	push	c_y+2
1740  000f be00          	ldw	x,c_y
1741  0011 89            	pushw	x
1744                     ; 1620 	if(Parameter_Set_Flag){
1746  0012 3d00          	tnz	_Parameter_Set_Flag
1747  0014 2604          	jrne	L02
1748  0016 ac830283      	jpf	L311
1749  001a               L02:
1750                     ; 1621 		if(!GPIO_ReadInputPin(Set_KEY_PORT,Set_KEY_PIN)\
1750                     ; 1622 			||!GPIO_ReadInputPin(StartStop_KEY_PORT,StartStop_KEY_PIN)){
1752  001a 4b20          	push	#32
1753  001c ae5000        	ldw	x,#20480
1754  001f cd0000        	call	_GPIO_ReadInputPin
1756  0022 5b01          	addw	sp,#1
1757  0024 4d            	tnz	a
1758  0025 270d          	jreq	L711
1760  0027 4b40          	push	#64
1761  0029 ae5000        	ldw	x,#20480
1762  002c cd0000        	call	_GPIO_ReadInputPin
1764  002f 5b01          	addw	sp,#1
1765  0031 4d            	tnz	a
1766  0032 260a          	jrne	L511
1767  0034               L711:
1768                     ; 1623 				ParameterMode_Autoquit_Count = 0;
1770  0034 ae0000        	ldw	x,#0
1771  0037 bf27          	ldw	_ParameterMode_Autoquit_Count+2,x
1772  0039 ae0000        	ldw	x,#0
1773  003c bf25          	ldw	_ParameterMode_Autoquit_Count,x
1774  003e               L511:
1775                     ; 1625 		switch(dt){
1777  003e b600          	ld	a,_dt
1779                     ; 1752 			default:
1779                     ; 1753 				break;
1780  0040 a002          	sub	a,#2
1781  0042 272b          	jreq	L36
1782  0044 4a            	dec	a
1783  0045 2604acce00ce  	jreq	L56
1784  004b 4a            	dec	a
1785  004c 2604          	jrne	L22
1786  004e ac2d012d      	jpf	L76
1787  0052               L22:
1788  0052 4a            	dec	a
1789  0053 2604          	jrne	L42
1790  0055 ace701e7      	jpf	L37
1791  0059               L42:
1792  0059 4a            	dec	a
1793  005a 2604          	jrne	L62
1794  005c ac8a018a      	jpf	L17
1795  0060               L62:
1796  0060 4a            	dec	a
1797  0061 2604          	jrne	L03
1798  0063 ac360236      	jpf	L57
1799  0067               L03:
1800  0067 ac830283      	jpf	L311
1801  006b               L16:
1802                     ; 1626 			case Tem_Show:
1802                     ; 1627 				break;
1804  006b ac830283      	jpf	L311
1805  006f               L36:
1806                     ; 1628 			case Tem_AlarmHighLimit_Set:
1806                     ; 1629 				if(!GPIO_ReadInputPin(Set_KEY_PORT,Set_KEY_PIN)){
1808  006f 4b20          	push	#32
1809  0071 ae5000        	ldw	x,#20480
1810  0074 cd0000        	call	_GPIO_ReadInputPin
1812  0077 5b01          	addw	sp,#1
1813  0079 4d            	tnz	a
1814  007a 2616          	jrne	L521
1815                     ; 1630 					if(step == 0)
1817  007c 3d33          	tnz	_step
1818  007e 2606          	jrne	L721
1819                     ; 1631 						dt = Tem_AlarmLowLimit_Set;
1821  0080 35030000      	mov	_dt,#3
1823  0084 200c          	jra	L521
1824  0086               L721:
1825                     ; 1632 					else if(step == 1){
1827  0086 b633          	ld	a,_step
1828  0088 a101          	cp	a,#1
1829  008a 2606          	jrne	L521
1830                     ; 1633 						step = 0;
1832  008c 3f33          	clr	_step
1833                     ; 1634 						temalarmhighlimitsetting_update_flag = TRUE;
1835  008e 35010000      	mov	_temalarmhighlimitsetting_update_flag,#1
1836  0092               L521:
1837                     ; 1637 				if(!GPIO_ReadInputPin(StartStop_KEY_PORT,StartStop_KEY_PIN)){
1839  0092 4b40          	push	#64
1840  0094 ae5000        	ldw	x,#20480
1841  0097 cd0000        	call	_GPIO_ReadInputPin
1843  009a 5b01          	addw	sp,#1
1844  009c 4d            	tnz	a
1845  009d 2704          	jreq	L23
1846  009f ac830283      	jpf	L311
1847  00a3               L23:
1848                     ; 1638 					if(step == 0){
1850  00a3 3d33          	tnz	_step
1851  00a5 2608          	jrne	L731
1852                     ; 1639 						step = 1;
1854  00a7 35010033      	mov	_step,#1
1856  00ab ac830283      	jpf	L311
1857  00af               L731:
1858                     ; 1641 					else if(step == 1){
1860  00af b633          	ld	a,_step
1861  00b1 a101          	cp	a,#1
1862  00b3 2704          	jreq	L43
1863  00b5 ac830283      	jpf	L311
1864  00b9               L43:
1865                     ; 1642 						Current_TemAlarmHighLimitValue++;
1867  00b9 3c00          	inc	_Current_TemAlarmHighLimitValue
1868                     ; 1643 						if(Current_TemAlarmHighLimitValue > TemAlarm_UpLimit)
1870  00bb 9c            	rvf
1871  00bc b600          	ld	a,_Current_TemAlarmHighLimitValue
1872  00be a164          	cp	a,#100
1873  00c0 2e04          	jrsge	L63
1874  00c2 ac830283      	jpf	L311
1875  00c6               L63:
1876                     ; 1644 							Current_TemAlarmHighLimitValue = TemAlarm_DownLimit;
1878  00c6 35f70000      	mov	_Current_TemAlarmHighLimitValue,#247
1879  00ca ac830283      	jpf	L311
1880  00ce               L56:
1881                     ; 1648 			case Tem_AlarmLowLimit_Set:
1881                     ; 1649 				if(!GPIO_ReadInputPin(Set_KEY_PORT,Set_KEY_PIN)){
1883  00ce 4b20          	push	#32
1884  00d0 ae5000        	ldw	x,#20480
1885  00d3 cd0000        	call	_GPIO_ReadInputPin
1887  00d6 5b01          	addw	sp,#1
1888  00d8 4d            	tnz	a
1889  00d9 2616          	jrne	L741
1890                     ; 1650 					if(step == 0)
1892  00db 3d33          	tnz	_step
1893  00dd 2606          	jrne	L151
1894                     ; 1651 						dt = Tem_Alarm_Enable;
1896  00df 35040000      	mov	_dt,#4
1898  00e3 200c          	jra	L741
1899  00e5               L151:
1900                     ; 1652 					else if(step == 1){
1902  00e5 b633          	ld	a,_step
1903  00e7 a101          	cp	a,#1
1904  00e9 2606          	jrne	L741
1905                     ; 1653 						step = 0;
1907  00eb 3f33          	clr	_step
1908                     ; 1654 						temalarmlowlimitsetting_update_flag = TRUE;
1910  00ed 35010000      	mov	_temalarmlowlimitsetting_update_flag,#1
1911  00f1               L741:
1912                     ; 1657 				if(!GPIO_ReadInputPin(StartStop_KEY_PORT,StartStop_KEY_PIN)){
1914  00f1 4b40          	push	#64
1915  00f3 ae5000        	ldw	x,#20480
1916  00f6 cd0000        	call	_GPIO_ReadInputPin
1918  00f9 5b01          	addw	sp,#1
1919  00fb 4d            	tnz	a
1920  00fc 2704          	jreq	L04
1921  00fe ac830283      	jpf	L311
1922  0102               L04:
1923                     ; 1658 					if(step == 0){
1925  0102 3d33          	tnz	_step
1926  0104 2608          	jrne	L161
1927                     ; 1659 						step = 1;
1929  0106 35010033      	mov	_step,#1
1931  010a ac830283      	jpf	L311
1932  010e               L161:
1933                     ; 1661 					else if(step == 1){
1935  010e b633          	ld	a,_step
1936  0110 a101          	cp	a,#1
1937  0112 2704          	jreq	L24
1938  0114 ac830283      	jpf	L311
1939  0118               L24:
1940                     ; 1662 						Current_TemAlarmLowLimitValue++;
1942  0118 3c00          	inc	_Current_TemAlarmLowLimitValue
1943                     ; 1663 						if(Current_TemAlarmLowLimitValue > TemAlarm_UpLimit)
1945  011a 9c            	rvf
1946  011b b600          	ld	a,_Current_TemAlarmLowLimitValue
1947  011d a164          	cp	a,#100
1948  011f 2e04          	jrsge	L44
1949  0121 ac830283      	jpf	L311
1950  0125               L44:
1951                     ; 1664 							Current_TemAlarmLowLimitValue = TemAlarm_DownLimit;
1953  0125 35f70000      	mov	_Current_TemAlarmLowLimitValue,#247
1954  0129 ac830283      	jpf	L311
1955  012d               L76:
1956                     ; 1668 			case Tem_Alarm_Enable:
1956                     ; 1669 				if(!GPIO_ReadInputPin(Set_KEY_PORT,Set_KEY_PIN)){
1958  012d 4b20          	push	#32
1959  012f ae5000        	ldw	x,#20480
1960  0132 cd0000        	call	_GPIO_ReadInputPin
1962  0135 5b01          	addw	sp,#1
1963  0137 4d            	tnz	a
1964  0138 2616          	jrne	L171
1965                     ; 1670 					if(step == 0)
1967  013a 3d33          	tnz	_step
1968  013c 2606          	jrne	L371
1969                     ; 1671 						dt = Tem_Offset;
1971  013e 35050000      	mov	_dt,#5
1973  0142 200c          	jra	L171
1974  0144               L371:
1975                     ; 1672 					else if(step == 1){
1977  0144 b633          	ld	a,_step
1978  0146 a101          	cp	a,#1
1979  0148 2606          	jrne	L171
1980                     ; 1673 						step = 0;
1982  014a 3f33          	clr	_step
1983                     ; 1674 						temalarmenable_update_flag = TRUE;
1985  014c 35010000      	mov	_temalarmenable_update_flag,#1
1986  0150               L171:
1987                     ; 1677 				if(!GPIO_ReadInputPin(StartStop_KEY_PORT,StartStop_KEY_PIN)){
1989  0150 4b40          	push	#64
1990  0152 ae5000        	ldw	x,#20480
1991  0155 cd0000        	call	_GPIO_ReadInputPin
1993  0158 5b01          	addw	sp,#1
1994  015a 4d            	tnz	a
1995  015b 2704          	jreq	L64
1996  015d ac830283      	jpf	L311
1997  0161               L64:
1998                     ; 1678 					if(step == 0){
2000  0161 3d33          	tnz	_step
2001  0163 2608          	jrne	L302
2002                     ; 1679 						step = 1;
2004  0165 35010033      	mov	_step,#1
2006  0169 ac830283      	jpf	L311
2007  016d               L302:
2008                     ; 1681 					else if(step == 1){
2010  016d b633          	ld	a,_step
2011  016f a101          	cp	a,#1
2012  0171 2704          	jreq	L05
2013  0173 ac830283      	jpf	L311
2014  0177               L05:
2015                     ; 1682 						Current_TEMAlarmEnable++;
2017  0177 3c00          	inc	_Current_TEMAlarmEnable
2018                     ; 1683 						if(Current_TEMAlarmEnable > 1)
2020  0179 9c            	rvf
2021  017a b600          	ld	a,_Current_TEMAlarmEnable
2022  017c a102          	cp	a,#2
2023  017e 2e04          	jrsge	L25
2024  0180 ac830283      	jpf	L311
2025  0184               L25:
2026                     ; 1684 							Current_TEMAlarmEnable = 0;
2028  0184 3f00          	clr	_Current_TEMAlarmEnable
2029  0186 ac830283      	jpf	L311
2030  018a               L17:
2031                     ; 1688 		case Tem_Show_Enable:
2031                     ; 1689 				if(!GPIO_ReadInputPin(Set_KEY_PORT,Set_KEY_PIN)){
2033  018a 4b20          	push	#32
2034  018c ae5000        	ldw	x,#20480
2035  018f cd0000        	call	_GPIO_ReadInputPin
2037  0192 5b01          	addw	sp,#1
2038  0194 4d            	tnz	a
2039  0195 2616          	jrne	L312
2040                     ; 1690 					if(step == 0)
2042  0197 3d33          	tnz	_step
2043  0199 2606          	jrne	L512
2044                     ; 1691 						dt = Start_DelayTime_Select;
2046  019b 35070000      	mov	_dt,#7
2048  019f 200c          	jra	L312
2049  01a1               L512:
2050                     ; 1692 					else if(step == 1){
2052  01a1 b633          	ld	a,_step
2053  01a3 a101          	cp	a,#1
2054  01a5 2606          	jrne	L312
2055                     ; 1693 						step = 0;
2057  01a7 3f33          	clr	_step
2058                     ; 1694 						temshowenable_update_flag = TRUE;
2060  01a9 35010000      	mov	_temshowenable_update_flag,#1
2061  01ad               L312:
2062                     ; 1697 				if(!GPIO_ReadInputPin(StartStop_KEY_PORT,StartStop_KEY_PIN)){
2064  01ad 4b40          	push	#64
2065  01af ae5000        	ldw	x,#20480
2066  01b2 cd0000        	call	_GPIO_ReadInputPin
2068  01b5 5b01          	addw	sp,#1
2069  01b7 4d            	tnz	a
2070  01b8 2704          	jreq	L45
2071  01ba ac830283      	jpf	L311
2072  01be               L45:
2073                     ; 1698 					if(step == 0){
2075  01be 3d33          	tnz	_step
2076  01c0 2608          	jrne	L522
2077                     ; 1699 						step = 1;
2079  01c2 35010033      	mov	_step,#1
2081  01c6 ac830283      	jpf	L311
2082  01ca               L522:
2083                     ; 1701 					else if(step == 1){
2085  01ca b633          	ld	a,_step
2086  01cc a101          	cp	a,#1
2087  01ce 2704          	jreq	L65
2088  01d0 ac830283      	jpf	L311
2089  01d4               L65:
2090                     ; 1702 						Current_TEMShowEnble++;
2092  01d4 3c00          	inc	_Current_TEMShowEnble
2093                     ; 1703 						if(Current_TEMShowEnble > 1)
2095  01d6 9c            	rvf
2096  01d7 b600          	ld	a,_Current_TEMShowEnble
2097  01d9 a102          	cp	a,#2
2098  01db 2e04          	jrsge	L06
2099  01dd ac830283      	jpf	L311
2100  01e1               L06:
2101                     ; 1704 							Current_TEMShowEnble = 0;
2103  01e1 3f00          	clr	_Current_TEMShowEnble
2104  01e3 ac830283      	jpf	L311
2105  01e7               L37:
2106                     ; 1708 		case Tem_Offset:
2106                     ; 1709 				if(!GPIO_ReadInputPin(Set_KEY_PORT,Set_KEY_PIN)){
2108  01e7 4b20          	push	#32
2109  01e9 ae5000        	ldw	x,#20480
2110  01ec cd0000        	call	_GPIO_ReadInputPin
2112  01ef 5b01          	addw	sp,#1
2113  01f1 4d            	tnz	a
2114  01f2 2616          	jrne	L532
2115                     ; 1710 					if(step == 0)
2117  01f4 3d33          	tnz	_step
2118  01f6 2606          	jrne	L732
2119                     ; 1711 						dt = Tem_Show_Enable;
2121  01f8 35060000      	mov	_dt,#6
2123  01fc 200c          	jra	L532
2124  01fe               L732:
2125                     ; 1712 					else if(step == 1){
2127  01fe b633          	ld	a,_step
2128  0200 a101          	cp	a,#1
2129  0202 2606          	jrne	L532
2130                     ; 1713 						step = 0;
2132  0204 3f33          	clr	_step
2133                     ; 1714 						temoffset_update_flag = TRUE;
2135  0206 35010000      	mov	_temoffset_update_flag,#1
2136  020a               L532:
2137                     ; 1717 				if(!GPIO_ReadInputPin(StartStop_KEY_PORT,StartStop_KEY_PIN)){
2139  020a 4b40          	push	#64
2140  020c ae5000        	ldw	x,#20480
2141  020f cd0000        	call	_GPIO_ReadInputPin
2143  0212 5b01          	addw	sp,#1
2144  0214 4d            	tnz	a
2145  0215 266c          	jrne	L311
2146                     ; 1718 					if(step == 0){
2148  0217 3d33          	tnz	_step
2149  0219 2606          	jrne	L742
2150                     ; 1719 						step = 1;
2152  021b 35010033      	mov	_step,#1
2154  021f 2062          	jra	L311
2155  0221               L742:
2156                     ; 1721 					else if(step == 1){
2158  0221 b633          	ld	a,_step
2159  0223 a101          	cp	a,#1
2160  0225 265c          	jrne	L311
2161                     ; 1722 						Current_TEMOffsetSetting++;
2163  0227 3c00          	inc	_Current_TEMOffsetSetting
2164                     ; 1723 						if(Current_TEMOffsetSetting > TemOffset_UpLimit)
2166  0229 9c            	rvf
2167  022a b600          	ld	a,_Current_TEMOffsetSetting
2168  022c a10a          	cp	a,#10
2169  022e 2f53          	jrslt	L311
2170                     ; 1724 							Current_TEMOffsetSetting = TemOffset_DownLimit;
2172  0230 35f70000      	mov	_Current_TEMOffsetSetting,#247
2173  0234 204d          	jra	L311
2174  0236               L57:
2175                     ; 1728 			case Start_DelayTime_Select:
2175                     ; 1729 				if(!GPIO_ReadInputPin(Set_KEY_PORT,Set_KEY_PIN)){
2177  0236 4b20          	push	#32
2178  0238 ae5000        	ldw	x,#20480
2179  023b cd0000        	call	_GPIO_ReadInputPin
2181  023e 5b01          	addw	sp,#1
2182  0240 4d            	tnz	a
2183  0241 2618          	jrne	L752
2184                     ; 1730 					if(step == 0){
2186  0243 3d33          	tnz	_step
2187  0245 2608          	jrne	L162
2188                     ; 1731 						dt = Tem_Show;
2190  0247 35010000      	mov	_dt,#1
2191                     ; 1732 						Parameter_Set_Flag = FALSE;
2193  024b 3f00          	clr	_Parameter_Set_Flag
2195  024d 200c          	jra	L752
2196  024f               L162:
2197                     ; 1734 					else if(step == 1){
2199  024f b633          	ld	a,_step
2200  0251 a101          	cp	a,#1
2201  0253 2606          	jrne	L752
2202                     ; 1735 						step = 0;
2204  0255 3f33          	clr	_step
2205                     ; 1736 						startdelaytimeselect_update_flag = TRUE;
2207  0257 35010000      	mov	_startdelaytimeselect_update_flag,#1
2208  025b               L752:
2209                     ; 1739 				if(!GPIO_ReadInputPin(StartStop_KEY_PORT,StartStop_KEY_PIN)){
2211  025b 4b40          	push	#64
2212  025d ae5000        	ldw	x,#20480
2213  0260 cd0000        	call	_GPIO_ReadInputPin
2215  0263 5b01          	addw	sp,#1
2216  0265 4d            	tnz	a
2217  0266 261b          	jrne	L311
2218                     ; 1740 					if(step == 0){
2220  0268 3d33          	tnz	_step
2221  026a 2606          	jrne	L172
2222                     ; 1741 						step = 1;
2224  026c 35010033      	mov	_step,#1
2226  0270 2011          	jra	L311
2227  0272               L172:
2228                     ; 1743 					else if(step == 1){
2230  0272 b633          	ld	a,_step
2231  0274 a101          	cp	a,#1
2232  0276 260b          	jrne	L311
2233                     ; 1744 						Current_StartDelayTimeIndex++;
2235  0278 3c00          	inc	_Current_StartDelayTimeIndex
2236                     ; 1745 						if(Current_StartDelayTimeIndex > StartDelayTimeIndex_UpLimit)
2238  027a 9c            	rvf
2239  027b b600          	ld	a,_Current_StartDelayTimeIndex
2240  027d a103          	cp	a,#3
2241  027f 2f02          	jrslt	L311
2242                     ; 1746 							Current_StartDelayTimeIndex = StartDelayTimeIndex_DownLimit;
2244  0281 3f00          	clr	_Current_StartDelayTimeIndex
2245  0283               L77:
2246                     ; 1750 			case Other:
2246                     ; 1751 				break;
2248  0283               L101:
2249                     ; 1752 			default:
2249                     ; 1753 				break;
2251  0283               L321:
2252  0283               L311:
2253                     ; 1761 }
2256  0283 85            	popw	x
2257  0284 bf00          	ldw	c_y,x
2258  0286 320002        	pop	c_y+2
2259  0289 85            	popw	x
2260  028a bf00          	ldw	c_x,x
2261  028c 320002        	pop	c_x+2
2262  028f 80            	iret
2285                     ; 1768 INTERRUPT_HANDLER(EXTI_PORTB_IRQHandler, 4)
2285                     ; 1769 {
2286                     .text:	section	.text,new
2287  0000               f_EXTI_PORTB_IRQHandler:
2291                     ; 1773 }
2294  0000 80            	iret
2317                     ; 1780 INTERRUPT_HANDLER(EXTI_PORTC_IRQHandler, 5)
2317                     ; 1781 {
2318                     .text:	section	.text,new
2319  0000               f_EXTI_PORTC_IRQHandler:
2323                     ; 1785 }
2326  0000 80            	iret
2349                     ; 1792 INTERRUPT_HANDLER(EXTI_PORTD_IRQHandler, 6)
2349                     ; 1793 {
2350                     .text:	section	.text,new
2351  0000               f_EXTI_PORTD_IRQHandler:
2355                     ; 1797 }
2358  0000 80            	iret
2381                     ; 1804 INTERRUPT_HANDLER(EXTI_PORTE_IRQHandler, 7)
2381                     ; 1805 {
2382                     .text:	section	.text,new
2383  0000               f_EXTI_PORTE_IRQHandler:
2387                     ; 1809 }
2390  0000 80            	iret
2412                     ; 1856 INTERRUPT_HANDLER(SPI_IRQHandler, 10)
2412                     ; 1857 {
2413                     .text:	section	.text,new
2414  0000               f_SPI_IRQHandler:
2418                     ; 1861 }
2421  0000 80            	iret
2444                     ; 1868 INTERRUPT_HANDLER(TIM1_UPD_OVF_TRG_BRK_IRQHandler, 11)
2444                     ; 1869 {
2445                     .text:	section	.text,new
2446  0000               f_TIM1_UPD_OVF_TRG_BRK_IRQHandler:
2450                     ; 1873 }
2453  0000 80            	iret
2476                     ; 1880 INTERRUPT_HANDLER(TIM1_CAP_COM_IRQHandler, 12)
2476                     ; 1881 {
2477                     .text:	section	.text,new
2478  0000               f_TIM1_CAP_COM_IRQHandler:
2482                     ; 1885 }
2485  0000 80            	iret
2508                     ; 1918  INTERRUPT_HANDLER(TIM2_UPD_OVF_BRK_IRQHandler, 13)
2508                     ; 1919  {
2509                     .text:	section	.text,new
2510  0000               f_TIM2_UPD_OVF_BRK_IRQHandler:
2514                     ; 1923  }
2517  0000 80            	iret
2540                     ; 1930  INTERRUPT_HANDLER(TIM2_CAP_COM_IRQHandler, 14)
2540                     ; 1931  {
2541                     .text:	section	.text,new
2542  0000               f_TIM2_CAP_COM_IRQHandler:
2546                     ; 1935  }
2549  0000 80            	iret
2576                     ; 1945  INTERRUPT_HANDLER(TIM3_UPD_OVF_BRK_IRQHandler, 15)
2576                     ; 1946  {
2577                     .text:	section	.text,new
2578  0000               f_TIM3_UPD_OVF_BRK_IRQHandler:
2580  0000 8a            	push	cc
2581  0001 84            	pop	a
2582  0002 a4bf          	and	a,#191
2583  0004 88            	push	a
2584  0005 86            	pop	cc
2585  0006 3b0002        	push	c_x+2
2586  0009 be00          	ldw	x,c_x
2587  000b 89            	pushw	x
2588  000c 3b0002        	push	c_y+2
2589  000f be00          	ldw	x,c_y
2590  0011 89            	pushw	x
2593                     ; 1950 	leddisplay_scan(Dig_Switch_Flag,&step);
2595  0012 ae0033        	ldw	x,#_step
2596  0015 89            	pushw	x
2597  0016 b62e          	ld	a,_Dig_Switch_Flag
2598  0018 cd0000        	call	_leddisplay_scan
2600  001b 85            	popw	x
2601                     ; 1951 	Dig_Switch_Flag = !Dig_Switch_Flag;
2603  001c 3d2e          	tnz	_Dig_Switch_Flag
2604  001e 2604          	jrne	L601
2605  0020 a601          	ld	a,#1
2606  0022 2001          	jra	L011
2607  0024               L601:
2608  0024 4f            	clr	a
2609  0025               L011:
2610  0025 b72e          	ld	_Dig_Switch_Flag,a
2611                     ; 1954   TIM3_ClearITPendingBit(TIM3_IT_UPDATE);
2613  0027 a601          	ld	a,#1
2614  0029 cd0000        	call	_TIM3_ClearITPendingBit
2616                     ; 1955  }
2619  002c 85            	popw	x
2620  002d bf00          	ldw	c_y,x
2621  002f 320002        	pop	c_y+2
2622  0032 85            	popw	x
2623  0033 bf00          	ldw	c_x,x
2624  0035 320002        	pop	c_x+2
2625  0038 80            	iret
2648                     ; 1962  INTERRUPT_HANDLER(TIM3_CAP_COM_IRQHandler, 16)
2648                     ; 1963  {
2649                     .text:	section	.text,new
2650  0000               f_TIM3_CAP_COM_IRQHandler:
2654                     ; 1967  }
2657  0000 80            	iret
2679                     ; 2028 INTERRUPT_HANDLER(I2C_IRQHandler, 19)
2679                     ; 2029 {
2680                     .text:	section	.text,new
2681  0000               f_I2C_IRQHandler:
2685                     ; 2033 }
2688  0000 80            	iret
2711                     ; 2041  INTERRUPT_HANDLER(UART2_TX_IRQHandler, 20)
2711                     ; 2042  {
2712                     .text:	section	.text,new
2713  0000               f_UART2_TX_IRQHandler:
2717                     ; 2046  }
2720  0000 80            	iret
2743                     ; 2053  INTERRUPT_HANDLER(UART2_RX_IRQHandler, 21)
2743                     ; 2054  {
2744                     .text:	section	.text,new
2745  0000               f_UART2_RX_IRQHandler:
2749                     ; 2058  }
2752  0000 80            	iret
2780                     ; 2107  INTERRUPT_HANDLER(ADC1_IRQHandler, 22)
2780                     ; 2108  {
2781                     .text:	section	.text,new
2782  0000               f_ADC1_IRQHandler:
2784  0000 8a            	push	cc
2785  0001 84            	pop	a
2786  0002 a4bf          	and	a,#191
2787  0004 88            	push	a
2788  0005 86            	pop	cc
2789  0006 3b0002        	push	c_x+2
2790  0009 be00          	ldw	x,c_x
2791  000b 89            	pushw	x
2792  000c 3b0002        	push	c_y+2
2793  000f be00          	ldw	x,c_y
2794  0011 89            	pushw	x
2797                     ; 2113     SUM += ADC1_GetConversionValue();
2799  0012 cd0000        	call	_ADC1_GetConversionValue
2801  0015 72bb0003      	addw	x,_SUM
2802  0019 bf03          	ldw	_SUM,x
2803                     ; 2114 		if(++NTC_ADC_Count == NTC_ADC_COUNT_UPLIMIT){
2805  001b be05          	ldw	x,_NTC_ADC_Count
2806  001d 1c0001        	addw	x,#1
2807  0020 bf05          	ldw	_NTC_ADC_Count,x
2808  0022 a30008        	cpw	x,#8
2809  0025 2616          	jrne	L174
2810                     ; 2115 			NTC_ADC_Count = 0;
2812  0027 5f            	clrw	x
2813  0028 bf05          	ldw	_NTC_ADC_Count,x
2814                     ; 2116 			NTC_Conversion_Value = (SUM/NTC_ADC_COUNT_UPLIMIT);
2816  002a be03          	ldw	x,_SUM
2817  002c 54            	srlw	x
2818  002d 54            	srlw	x
2819  002e 54            	srlw	x
2820  002f bf01          	ldw	_NTC_Conversion_Value,x
2821                     ; 2117 			SUM = 0;
2823  0031 5f            	clrw	x
2824  0032 bf03          	ldw	_SUM,x
2825                     ; 2118 			ADC1_ITConfig(ADC1_IT_EOCIE, DISABLE);
2827  0034 4b00          	push	#0
2828  0036 ae0020        	ldw	x,#32
2829  0039 cd0000        	call	_ADC1_ITConfig
2831  003c 84            	pop	a
2832  003d               L174:
2833                     ; 2120 		ADC1_ClearITPendingBit(ADC1_IT_EOC);
2835  003d ae0080        	ldw	x,#128
2836  0040 cd0000        	call	_ADC1_ClearITPendingBit
2838                     ; 2121  }
2841  0043 85            	popw	x
2842  0044 bf00          	ldw	c_y,x
2843  0046 320002        	pop	c_y+2
2844  0049 85            	popw	x
2845  004a bf00          	ldw	c_x,x
2846  004c 320002        	pop	c_x+2
2847  004f 80            	iret
2905                     	switch	.const
2906  0b56               L231:
2907  0b56 000dbba0      	dc.l	900000
2908  0b5a               L041:
2909  0b5a 00002710      	dc.l	10000
2910  0b5e               L261:
2911  0b5e 0002bf20      	dc.l	180000
2912                     ; 2142  INTERRUPT_HANDLER(TIM4_UPD_OVF_IRQHandler, 23)
2912                     ; 2143  {
2913                     .text:	section	.text,new
2914  0000               f_TIM4_UPD_OVF_IRQHandler:
2916  0000 8a            	push	cc
2917  0001 84            	pop	a
2918  0002 a4bf          	and	a,#191
2919  0004 88            	push	a
2920  0005 86            	pop	cc
2921       00000004      OFST:	set	4
2922  0006 3b0002        	push	c_x+2
2923  0009 be00          	ldw	x,c_x
2924  000b 89            	pushw	x
2925  000c 3b0002        	push	c_y+2
2926  000f be00          	ldw	x,c_y
2927  0011 89            	pushw	x
2928  0012 be02          	ldw	x,c_lreg+2
2929  0014 89            	pushw	x
2930  0015 be00          	ldw	x,c_lreg
2931  0017 89            	pushw	x
2932  0018 5204          	subw	sp,#4
2935                     ; 2148 	if(!GPIO_ReadInputPin(Error_Input_PORT,E_Error_PIN)){
2937  001a 4b08          	push	#8
2938  001c ae5005        	ldw	x,#20485
2939  001f cd0000        	call	_GPIO_ReadInputPin
2941  0022 5b01          	addw	sp,#1
2942  0024 4d            	tnz	a
2943  0025 2622          	jrne	L305
2944                     ; 2149 		if(++E_Error_Delay_Count == E_Error_DelayTime && E_Error_Exist_Flag == FALSE){
2946  0027 be09          	ldw	x,_E_Error_Delay_Count
2947  0029 1c0001        	addw	x,#1
2948  002c bf09          	ldw	_E_Error_Delay_Count,x
2949  002e a30bb8        	cpw	x,#3000
2950  0031 2619          	jrne	L705
2952  0033 3d29          	tnz	_E_Error_Exist_Flag
2953  0035 2615          	jrne	L705
2954                     ; 2150 			E_Error_Delay_Count = 0;
2956  0037 5f            	clrw	x
2957  0038 bf09          	ldw	_E_Error_Delay_Count,x
2958                     ; 2151 			E_Error_Exist_Flag = TRUE;
2960  003a 35010029      	mov	_E_Error_Exist_Flag,#1
2961                     ; 2152 			GPIO_WriteLow(Electricalfail_LED_PORT,Electricalfail_LED_PIN);
2963  003e 4b10          	push	#16
2964  0040 ae500f        	ldw	x,#20495
2965  0043 cd0000        	call	_GPIO_WriteLow
2967  0046 84            	pop	a
2968  0047 2003          	jra	L705
2969  0049               L305:
2970                     ; 2156 		E_Error_Delay_Count = 0;
2972  0049 5f            	clrw	x
2973  004a bf09          	ldw	_E_Error_Delay_Count,x
2974  004c               L705:
2975                     ; 2158 	if(!GPIO_ReadInputPin(Error_Input_PORT,LP_Error_PIN)){
2977  004c 4b04          	push	#4
2978  004e ae5005        	ldw	x,#20485
2979  0051 cd0000        	call	_GPIO_ReadInputPin
2981  0054 5b01          	addw	sp,#1
2982  0056 4d            	tnz	a
2983  0057 2622          	jrne	L115
2984                     ; 2159 		if(++LP_Error_Delay_Count == LP_Error_DelayTime && LP_Error_Exist_Flag == FALSE){
2986  0059 be0b          	ldw	x,_LP_Error_Delay_Count
2987  005b 1c0001        	addw	x,#1
2988  005e bf0b          	ldw	_LP_Error_Delay_Count,x
2989  0060 a30bb8        	cpw	x,#3000
2990  0063 2619          	jrne	L515
2992  0065 3d2a          	tnz	_LP_Error_Exist_Flag
2993  0067 2615          	jrne	L515
2994                     ; 2160 			LP_Error_Delay_Count = 0;
2996  0069 5f            	clrw	x
2997  006a bf0b          	ldw	_LP_Error_Delay_Count,x
2998                     ; 2161 			LP_Error_Exist_Flag = TRUE;
3000  006c 3501002a      	mov	_LP_Error_Exist_Flag,#1
3001                     ; 2162 			GPIO_WriteLow(Lowpressure_LED_PORT,Lowpressure_LED_PIN);
3003  0070 4b20          	push	#32
3004  0072 ae500f        	ldw	x,#20495
3005  0075 cd0000        	call	_GPIO_WriteLow
3007  0078 84            	pop	a
3008  0079 2003          	jra	L515
3009  007b               L115:
3010                     ; 2166 		LP_Error_Delay_Count = 0;
3012  007b 5f            	clrw	x
3013  007c bf0b          	ldw	_LP_Error_Delay_Count,x
3014  007e               L515:
3015                     ; 2168 	if(!GPIO_ReadInputPin(Error_Input_PORT,HP_Error_PIN)){
3017  007e 4b02          	push	#2
3018  0080 ae5005        	ldw	x,#20485
3019  0083 cd0000        	call	_GPIO_ReadInputPin
3021  0086 5b01          	addw	sp,#1
3022  0088 4d            	tnz	a
3023  0089 2622          	jrne	L715
3024                     ; 2169 		if(++HP_Error_Delay_Count == HP_Error_DelayTime && HP_Error_Exist_Flag == FALSE){
3026  008b be0d          	ldw	x,_HP_Error_Delay_Count
3027  008d 1c0001        	addw	x,#1
3028  0090 bf0d          	ldw	_HP_Error_Delay_Count,x
3029  0092 a30bb8        	cpw	x,#3000
3030  0095 2619          	jrne	L325
3032  0097 3d2b          	tnz	_HP_Error_Exist_Flag
3033  0099 2615          	jrne	L325
3034                     ; 2170 			HP_Error_Delay_Count = 0;
3036  009b 5f            	clrw	x
3037  009c bf0d          	ldw	_HP_Error_Delay_Count,x
3038                     ; 2171 			HP_Error_Exist_Flag = TRUE;
3040  009e 3501002b      	mov	_HP_Error_Exist_Flag,#1
3041                     ; 2172 			GPIO_WriteLow(Highpressure_LED_PORT,Highpressure_LED_PIN);
3043  00a2 4b40          	push	#64
3044  00a4 ae500f        	ldw	x,#20495
3045  00a7 cd0000        	call	_GPIO_WriteLow
3047  00aa 84            	pop	a
3048  00ab 2003          	jra	L325
3049  00ad               L715:
3050                     ; 2176 		HP_Error_Delay_Count = 0;
3052  00ad 5f            	clrw	x
3053  00ae bf0d          	ldw	_HP_Error_Delay_Count,x
3054  00b0               L325:
3055                     ; 2178 	if( (NTC_TEM_Value > Current_TemAlarmHighLimitValue || NTC_TEM_Value < Current_TemAlarmLowLimitValue) && !TEM_Error_Exist_Flag && !Parameter_Set_Flag && Relay_Output_Flag && Current_TEMAlarmEnable == 1){
3057  00b0 9c            	rvf
3058  00b1 5f            	clrw	x
3059  00b2 b600          	ld	a,_Current_TemAlarmHighLimitValue
3060  00b4 2a01          	jrpl	L621
3061  00b6 53            	cplw	x
3062  00b7               L621:
3063  00b7 97            	ld	xl,a
3064  00b8 bf00          	ldw	c_x,x
3065  00ba be07          	ldw	x,_NTC_TEM_Value
3066  00bc b300          	cpw	x,c_x
3067  00be 2c10          	jrsgt	L725
3069  00c0 9c            	rvf
3070  00c1 5f            	clrw	x
3071  00c2 b600          	ld	a,_Current_TemAlarmLowLimitValue
3072  00c4 2a01          	jrpl	L031
3073  00c6 53            	cplw	x
3074  00c7               L031:
3075  00c7 97            	ld	xl,a
3076  00c8 bf00          	ldw	c_x,x
3077  00ca be07          	ldw	x,_NTC_TEM_Value
3078  00cc b300          	cpw	x,c_x
3079  00ce 2e45          	jrsge	L525
3080  00d0               L725:
3082  00d0 3d2c          	tnz	_TEM_Error_Exist_Flag
3083  00d2 2641          	jrne	L525
3085  00d4 3d00          	tnz	_Parameter_Set_Flag
3086  00d6 263d          	jrne	L525
3088  00d8 3d30          	tnz	_Relay_Output_Flag
3089  00da 2739          	jreq	L525
3091  00dc b600          	ld	a,_Current_TEMAlarmEnable
3092  00de a101          	cp	a,#1
3093  00e0 2633          	jrne	L525
3094                     ; 2179 		if(++Tem_Alarm_Delay_Count == Tem_Alarm_DelayTime ){
3096  00e2 ae0019        	ldw	x,#_Tem_Alarm_Delay_Count
3097  00e5 a601          	ld	a,#1
3098  00e7 cd0000        	call	c_lgadc
3100  00ea ae0019        	ldw	x,#_Tem_Alarm_Delay_Count
3101  00ed cd0000        	call	c_ltor
3103  00f0 ae0b56        	ldw	x,#L231
3104  00f3 cd0000        	call	c_lcmp
3106  00f6 2704ac880188  	jrne	L335
3107                     ; 2180 			Tem_Alarm_Delay_Count = 0;
3109  00fc ae0000        	ldw	x,#0
3110  00ff bf1b          	ldw	_Tem_Alarm_Delay_Count+2,x
3111  0101 ae0000        	ldw	x,#0
3112  0104 bf19          	ldw	_Tem_Alarm_Delay_Count,x
3113                     ; 2181 			TEM_Error_Exist_Flag = TRUE;
3115  0106 3501002c      	mov	_TEM_Error_Exist_Flag,#1
3116                     ; 2182 			GPIO_WriteLow(Tem_LED_PORT,Tem_LED_PIN);
3118  010a 4b08          	push	#8
3119  010c ae500f        	ldw	x,#20495
3120  010f cd0000        	call	_GPIO_WriteLow
3122  0112 84            	pop	a
3123  0113 2073          	jra	L335
3124  0115               L525:
3125                     ; 2185 	else if( (NTC_TEM_Value <= Current_TemAlarmHighLimitValue && NTC_TEM_Value >= Current_TemAlarmLowLimitValue) && TEM_Error_Exist_Flag && !Parameter_Set_Flag && Relay_Output_Flag && Current_TEMAlarmEnable == 1){
3127  0115 9c            	rvf
3128  0116 5f            	clrw	x
3129  0117 b600          	ld	a,_Current_TemAlarmHighLimitValue
3130  0119 2a01          	jrpl	L431
3131  011b 53            	cplw	x
3132  011c               L431:
3133  011c 97            	ld	xl,a
3134  011d bf00          	ldw	c_x,x
3135  011f be07          	ldw	x,_NTC_TEM_Value
3136  0121 b300          	cpw	x,c_x
3137  0123 2c4f          	jrsgt	L535
3139  0125 9c            	rvf
3140  0126 5f            	clrw	x
3141  0127 b600          	ld	a,_Current_TemAlarmLowLimitValue
3142  0129 2a01          	jrpl	L631
3143  012b 53            	cplw	x
3144  012c               L631:
3145  012c 97            	ld	xl,a
3146  012d bf00          	ldw	c_x,x
3147  012f be07          	ldw	x,_NTC_TEM_Value
3148  0131 b300          	cpw	x,c_x
3149  0133 2f3f          	jrslt	L535
3151  0135 3d2c          	tnz	_TEM_Error_Exist_Flag
3152  0137 273b          	jreq	L535
3154  0139 3d00          	tnz	_Parameter_Set_Flag
3155  013b 2637          	jrne	L535
3157  013d 3d30          	tnz	_Relay_Output_Flag
3158  013f 2733          	jreq	L535
3160  0141 b600          	ld	a,_Current_TEMAlarmEnable
3161  0143 a101          	cp	a,#1
3162  0145 262d          	jrne	L535
3163                     ; 2186 		if(++Tem_Alarm_Reset_Count == Tem_Alarm_Reset_DelayTime ){
3165  0147 ae001d        	ldw	x,#_Tem_Alarm_Reset_Count
3166  014a a601          	ld	a,#1
3167  014c cd0000        	call	c_lgadc
3169  014f ae001d        	ldw	x,#_Tem_Alarm_Reset_Count
3170  0152 cd0000        	call	c_ltor
3172  0155 ae0b5a        	ldw	x,#L041
3173  0158 cd0000        	call	c_lcmp
3175  015b 262b          	jrne	L335
3176                     ; 2187 			Tem_Alarm_Reset_Count = 0;
3178  015d ae0000        	ldw	x,#0
3179  0160 bf1f          	ldw	_Tem_Alarm_Reset_Count+2,x
3180  0162 ae0000        	ldw	x,#0
3181  0165 bf1d          	ldw	_Tem_Alarm_Reset_Count,x
3182                     ; 2188 			TEM_Error_Exist_Flag = FALSE;
3184  0167 3f2c          	clr	_TEM_Error_Exist_Flag
3185                     ; 2189 			GPIO_WriteHigh(Tem_LED_PORT,Tem_LED_PIN);
3187  0169 4b08          	push	#8
3188  016b ae500f        	ldw	x,#20495
3189  016e cd0000        	call	_GPIO_WriteHigh
3191  0171 84            	pop	a
3192  0172 2014          	jra	L335
3193  0174               L535:
3194                     ; 2193 		Tem_Alarm_Delay_Count = 0;
3196  0174 ae0000        	ldw	x,#0
3197  0177 bf1b          	ldw	_Tem_Alarm_Delay_Count+2,x
3198  0179 ae0000        	ldw	x,#0
3199  017c bf19          	ldw	_Tem_Alarm_Delay_Count,x
3200                     ; 2194 		Tem_Alarm_Reset_Count = 0;
3202  017e ae0000        	ldw	x,#0
3203  0181 bf1f          	ldw	_Tem_Alarm_Reset_Count+2,x
3204  0183 ae0000        	ldw	x,#0
3205  0186 bf1d          	ldw	_Tem_Alarm_Reset_Count,x
3206  0188               L335:
3207                     ; 2199 	Total_Error_Flag = (HP_Error_Exist_Flag)||(LP_Error_Exist_Flag)||(E_Error_Exist_Flag);
3209  0188 3d2b          	tnz	_HP_Error_Exist_Flag
3210  018a 2608          	jrne	L441
3211  018c 3d2a          	tnz	_LP_Error_Exist_Flag
3212  018e 2604          	jrne	L441
3213  0190 3d29          	tnz	_E_Error_Exist_Flag
3214  0192 2704          	jreq	L241
3215  0194               L441:
3216  0194 a601          	ld	a,#1
3217  0196 2001          	jra	L641
3218  0198               L241:
3219  0198 4f            	clr	a
3220  0199               L641:
3221  0199 b72d          	ld	_Total_Error_Flag,a
3222                     ; 2201 	if(Total_Error_Flag && Relay_Output_Flag){
3224  019b 3d2d          	tnz	_Total_Error_Flag
3225  019d 271a          	jreq	L345
3227  019f 3d30          	tnz	_Relay_Output_Flag
3228  01a1 2716          	jreq	L345
3229                     ; 2202 		GPIO_WriteHigh(Run_LED_PORT, Run_LED_PIN);
3231  01a3 4b80          	push	#128
3232  01a5 ae500f        	ldw	x,#20495
3233  01a8 cd0000        	call	_GPIO_WriteHigh
3235  01ab 84            	pop	a
3236                     ; 2203 		GPIO_WriteLow(RelayControl_PORT,RelayControl_PIN);
3238  01ac 4b10          	push	#16
3239  01ae ae5000        	ldw	x,#20480
3240  01b1 cd0000        	call	_GPIO_WriteLow
3242  01b4 84            	pop	a
3243                     ; 2204 		Relay_Output_Flag = 0;
3245  01b5 3f30          	clr	_Relay_Output_Flag
3246                     ; 2205 		Run_LED_Flash_Flag = 0;
3248  01b7 3f31          	clr	_Run_LED_Flash_Flag
3249  01b9               L345:
3250                     ; 2208 	if(!GPIO_ReadInputPin(RemoteControl_PORT,RemoteControl_Start_PIN) && !Total_Error_Flag){
3252  01b9 4b20          	push	#32
3253  01bb ae5005        	ldw	x,#20485
3254  01be cd0000        	call	_GPIO_ReadInputPin
3256  01c1 5b01          	addw	sp,#1
3257  01c3 4d            	tnz	a
3258  01c4 262a          	jrne	L545
3260  01c6 3d2d          	tnz	_Total_Error_Flag
3261  01c8 2626          	jrne	L545
3262                     ; 2209 		if(++RemoteControl_Start_Delay_Count == RemoteControl_Start_DelayTime ){
3264  01ca be0f          	ldw	x,_RemoteControl_Start_Delay_Count
3265  01cc 1c0001        	addw	x,#1
3266  01cf bf0f          	ldw	_RemoteControl_Start_Delay_Count,x
3267  01d1 a303e8        	cpw	x,#1000
3268  01d4 261d          	jrne	L355
3269                     ; 2210 			RemoteControl_Start_Delay_Count = 0;
3271  01d6 5f            	clrw	x
3272  01d7 bf0f          	ldw	_RemoteControl_Start_Delay_Count,x
3273                     ; 2211 			if(!Relay_Output_Flag){
3275  01d9 3d30          	tnz	_Relay_Output_Flag
3276  01db 2616          	jrne	L355
3277                     ; 2212 				Run_LED_Flash_Flag = TRUE;
3279  01dd 35010031      	mov	_Run_LED_Flash_Flag,#1
3280                     ; 2213 				GPIO_WriteLow(Run_LED_PORT, Run_LED_PIN);
3282  01e1 4b80          	push	#128
3283  01e3 ae500f        	ldw	x,#20495
3284  01e6 cd0000        	call	_GPIO_WriteLow
3286  01e9 84            	pop	a
3287                     ; 2214 				Relay_Output_Flag = TRUE;
3289  01ea 35010030      	mov	_Relay_Output_Flag,#1
3290  01ee 2003          	jra	L355
3291  01f0               L545:
3292                     ; 2219 		RemoteControl_Start_Delay_Count = 0;
3294  01f0 5f            	clrw	x
3295  01f1 bf0f          	ldw	_RemoteControl_Start_Delay_Count,x
3296  01f3               L355:
3297                     ; 2221 	if(!GPIO_ReadInputPin(RemoteControl_PORT,RemoteControl_Stop_PIN)){
3299  01f3 4b10          	push	#16
3300  01f5 ae5005        	ldw	x,#20485
3301  01f8 cd0000        	call	_GPIO_ReadInputPin
3303  01fb 5b01          	addw	sp,#1
3304  01fd 4d            	tnz	a
3305  01fe 262b          	jrne	L555
3306                     ; 2222 		if(++RemoteControl_Stop_Delay_Count == RemoteControl_Stop_DelayTime){
3308  0200 be11          	ldw	x,_RemoteControl_Stop_Delay_Count
3309  0202 1c0001        	addw	x,#1
3310  0205 bf11          	ldw	_RemoteControl_Stop_Delay_Count,x
3311  0207 a303e8        	cpw	x,#1000
3312  020a 2622          	jrne	L365
3313                     ; 2223 			RemoteControl_Stop_Delay_Count = 0;
3315  020c 5f            	clrw	x
3316  020d bf11          	ldw	_RemoteControl_Stop_Delay_Count,x
3317                     ; 2224 			if(Relay_Output_Flag){
3319  020f 3d30          	tnz	_Relay_Output_Flag
3320  0211 271b          	jreq	L365
3321                     ; 2225 				Run_LED_Flash_Flag = FALSE;
3323  0213 3f31          	clr	_Run_LED_Flash_Flag
3324                     ; 2226 				GPIO_WriteHigh(Run_LED_PORT, Run_LED_PIN);
3326  0215 4b80          	push	#128
3327  0217 ae500f        	ldw	x,#20495
3328  021a cd0000        	call	_GPIO_WriteHigh
3330  021d 84            	pop	a
3331                     ; 2227 				GPIO_WriteLow(RelayControl_PORT,RelayControl_PIN);	
3333  021e 4b10          	push	#16
3334  0220 ae5000        	ldw	x,#20480
3335  0223 cd0000        	call	_GPIO_WriteLow
3337  0226 84            	pop	a
3338                     ; 2228 				Relay_Output_Flag = FALSE;
3340  0227 3f30          	clr	_Relay_Output_Flag
3341  0229 2003          	jra	L365
3342  022b               L555:
3343                     ; 2233 		RemoteControl_Stop_Delay_Count = 0;
3345  022b 5f            	clrw	x
3346  022c bf11          	ldw	_RemoteControl_Stop_Delay_Count,x
3347  022e               L365:
3348                     ; 2236 	if(!GPIO_ReadInputPin(StartStop_KEY_PORT,StartStop_KEY_PIN) && !Parameter_Set_Flag && !StartStop_KeyLock_Flag){
3350  022e 4b40          	push	#64
3351  0230 ae5000        	ldw	x,#20480
3352  0233 cd0000        	call	_GPIO_ReadInputPin
3354  0236 5b01          	addw	sp,#1
3355  0238 4d            	tnz	a
3356  0239 2704          	jreq	L461
3357  023b ace902e9      	jpf	L565
3358  023f               L461:
3360  023f 3d00          	tnz	_Parameter_Set_Flag
3361  0241 2704          	jreq	L661
3362  0243 ace902e9      	jpf	L565
3363  0247               L661:
3365  0247 3d32          	tnz	_StartStop_KeyLock_Flag
3366  0249 2704          	jreq	L071
3367  024b ace902e9      	jpf	L565
3368  024f               L071:
3369                     ; 2238 		if(++StartStop_KEY_Delay_Count == StartStop_KEY_DelayTime){
3371  024f be13          	ldw	x,_StartStop_KEY_Delay_Count
3372  0251 1c0001        	addw	x,#1
3373  0254 bf13          	ldw	_StartStop_KEY_Delay_Count,x
3374  0256 a30064        	cpw	x,#100
3375  0259 2704          	jreq	L271
3376  025b acfb02fb      	jpf	L706
3377  025f               L271:
3378                     ; 2239 			StartStop_KEY_Delay_Count = 0;
3380  025f 5f            	clrw	x
3381  0260 bf13          	ldw	_StartStop_KEY_Delay_Count,x
3382                     ; 2240 			StartStop_KeyLock_Flag = TRUE;
3384  0262 35010032      	mov	_StartStop_KeyLock_Flag,#1
3385                     ; 2242 			if(HP_Error_Exist_Flag || LP_Error_Exist_Flag || E_Error_Exist_Flag || TEM_Error_Exist_Flag){
3387  0266 3d2b          	tnz	_HP_Error_Exist_Flag
3388  0268 260c          	jrne	L375
3390  026a 3d2a          	tnz	_LP_Error_Exist_Flag
3391  026c 2608          	jrne	L375
3393  026e 3d29          	tnz	_E_Error_Exist_Flag
3394  0270 2604          	jrne	L375
3396  0272 3d2c          	tnz	_TEM_Error_Exist_Flag
3397  0274 272c          	jreq	L175
3398  0276               L375:
3399                     ; 2243 				HP_Error_Exist_Flag = 0;
3401  0276 3f2b          	clr	_HP_Error_Exist_Flag
3402                     ; 2244 				LP_Error_Exist_Flag = 0;
3404  0278 3f2a          	clr	_LP_Error_Exist_Flag
3405                     ; 2245 				E_Error_Exist_Flag = 0;
3407  027a 3f29          	clr	_E_Error_Exist_Flag
3408                     ; 2246 				TEM_Error_Exist_Flag = 0;
3410  027c 3f2c          	clr	_TEM_Error_Exist_Flag
3411                     ; 2247 				GPIO_WriteHigh(Highpressure_LED_PORT,Highpressure_LED_PIN);
3413  027e 4b40          	push	#64
3414  0280 ae500f        	ldw	x,#20495
3415  0283 cd0000        	call	_GPIO_WriteHigh
3417  0286 84            	pop	a
3418                     ; 2248 				GPIO_WriteHigh(Electricalfail_LED_PORT,Electricalfail_LED_PIN);
3420  0287 4b10          	push	#16
3421  0289 ae500f        	ldw	x,#20495
3422  028c cd0000        	call	_GPIO_WriteHigh
3424  028f 84            	pop	a
3425                     ; 2249 				GPIO_WriteHigh(Lowpressure_LED_PORT,Lowpressure_LED_PIN);
3427  0290 4b20          	push	#32
3428  0292 ae500f        	ldw	x,#20495
3429  0295 cd0000        	call	_GPIO_WriteHigh
3431  0298 84            	pop	a
3432                     ; 2250 				GPIO_WriteHigh(Tem_LED_PORT,Tem_LED_PIN);
3434  0299 4b08          	push	#8
3435  029b ae500f        	ldw	x,#20495
3436  029e cd0000        	call	_GPIO_WriteHigh
3438  02a1 84            	pop	a
3439  02a2               L175:
3440                     ; 2253 			if(!Relay_Output_Flag && !Total_Error_Flag){
3442  02a2 3d30          	tnz	_Relay_Output_Flag
3443  02a4 261e          	jrne	L106
3445  02a6 3d2d          	tnz	_Total_Error_Flag
3446  02a8 261a          	jrne	L106
3447                     ; 2254 				Run_LED_Flash_Flag = TRUE;
3449  02aa 35010031      	mov	_Run_LED_Flash_Flag,#1
3450                     ; 2255 				GPIO_WriteLow(Run_LED_PORT, Run_LED_PIN);
3452  02ae 4b80          	push	#128
3453  02b0 ae500f        	ldw	x,#20495
3454  02b3 cd0000        	call	_GPIO_WriteLow
3456  02b6 84            	pop	a
3457                     ; 2257 				Relay_Output_Flag = !Relay_Output_Flag;
3459  02b7 3d30          	tnz	_Relay_Output_Flag
3460  02b9 2604          	jrne	L051
3461  02bb a601          	ld	a,#1
3462  02bd 2001          	jra	L251
3463  02bf               L051:
3464  02bf 4f            	clr	a
3465  02c0               L251:
3466  02c0 b730          	ld	_Relay_Output_Flag,a
3468  02c2 2037          	jra	L706
3469  02c4               L106:
3470                     ; 2259 			else if(Relay_Output_Flag){
3472  02c4 3d30          	tnz	_Relay_Output_Flag
3473  02c6 2733          	jreq	L706
3474                     ; 2260 				Run_LED_Flash_Flag = FALSE;
3476  02c8 3f31          	clr	_Run_LED_Flash_Flag
3477                     ; 2261 				GPIO_WriteHigh(Run_LED_PORT, Run_LED_PIN);
3479  02ca 4b80          	push	#128
3480  02cc ae500f        	ldw	x,#20495
3481  02cf cd0000        	call	_GPIO_WriteHigh
3483  02d2 84            	pop	a
3484                     ; 2262 				GPIO_WriteLow(RelayControl_PORT,RelayControl_PIN);	
3486  02d3 4b10          	push	#16
3487  02d5 ae5000        	ldw	x,#20480
3488  02d8 cd0000        	call	_GPIO_WriteLow
3490  02db 84            	pop	a
3491                     ; 2263 				Relay_Output_Flag = !Relay_Output_Flag;
3493  02dc 3d30          	tnz	_Relay_Output_Flag
3494  02de 2604          	jrne	L451
3495  02e0 a601          	ld	a,#1
3496  02e2 2001          	jra	L651
3497  02e4               L451:
3498  02e4 4f            	clr	a
3499  02e5               L651:
3500  02e5 b730          	ld	_Relay_Output_Flag,a
3501  02e7 2012          	jra	L706
3502  02e9               L565:
3503                     ; 2267 	else if(GPIO_ReadInputPin(StartStop_KEY_PORT,StartStop_KEY_PIN)){
3505  02e9 4b40          	push	#64
3506  02eb ae5000        	ldw	x,#20480
3507  02ee cd0000        	call	_GPIO_ReadInputPin
3509  02f1 5b01          	addw	sp,#1
3510  02f3 4d            	tnz	a
3511  02f4 2705          	jreq	L706
3512                     ; 2268 			StartStop_KEY_Delay_Count = 0;
3514  02f6 5f            	clrw	x
3515  02f7 bf13          	ldw	_StartStop_KEY_Delay_Count,x
3516                     ; 2269 			StartStop_KeyLock_Flag = FALSE;
3518  02f9 3f32          	clr	_StartStop_KeyLock_Flag
3519  02fb               L706:
3520                     ; 2272 	if(!GPIO_ReadInputPin(Set_KEY_PORT,Set_KEY_PIN) && !Parameter_Set_Flag){
3522  02fb 4b20          	push	#32
3523  02fd ae5000        	ldw	x,#20480
3524  0300 cd0000        	call	_GPIO_ReadInputPin
3526  0303 5b01          	addw	sp,#1
3527  0305 4d            	tnz	a
3528  0306 261d          	jrne	L316
3530  0308 3d00          	tnz	_Parameter_Set_Flag
3531  030a 2619          	jrne	L316
3532                     ; 2273 		if(++Set_KEY_Delay_Count == Set_KEY_DelayTime){
3534  030c be15          	ldw	x,_Set_KEY_Delay_Count
3535  030e 1c0001        	addw	x,#1
3536  0311 bf15          	ldw	_Set_KEY_Delay_Count,x
3537  0313 a30bb8        	cpw	x,#3000
3538  0316 2610          	jrne	L716
3539                     ; 2274 			Set_KEY_Delay_Count = 0;
3541  0318 5f            	clrw	x
3542  0319 bf15          	ldw	_Set_KEY_Delay_Count,x
3543                     ; 2275 			dt = Tem_AlarmHighLimit_Set;//switch to Tem_AlarmLimit_Set mode
3545  031b 35020000      	mov	_dt,#2
3546                     ; 2276 			Parameter_Set_Flag = TRUE;//
3548  031f 35010000      	mov	_Parameter_Set_Flag,#1
3549  0323 2003          	jra	L716
3550  0325               L316:
3551                     ; 2280 			Set_KEY_Delay_Count = 0;
3553  0325 5f            	clrw	x
3554  0326 bf15          	ldw	_Set_KEY_Delay_Count,x
3555  0328               L716:
3556                     ; 2283 	if(++Tem_Update_Delay_Count == Tem_Update_DelayTime){
3558  0328 be17          	ldw	x,_Tem_Update_Delay_Count
3559  032a 1c0001        	addw	x,#1
3560  032d bf17          	ldw	_Tem_Update_Delay_Count,x
3561  032f a301f4        	cpw	x,#500
3562  0332 2607          	jrne	L126
3563                     ; 2284 		Tem_Update_Delay_Count = 0;
3565  0334 5f            	clrw	x
3566  0335 bf17          	ldw	_Tem_Update_Delay_Count,x
3567                     ; 2285 		Tem_Update_Flag = TRUE;
3569  0337 3501002f      	mov	_Tem_Update_Flag,#1
3570  033b               L126:
3571                     ; 2289 	if(Run_LED_Flash_Flag){
3573  033b 3d31          	tnz	_Run_LED_Flash_Flag
3574  033d 2760          	jreq	L326
3575                     ; 2290 		if(++Run_LED_Flash_Delay_Count == (uint32_t)StartDelayTimeList[Current_StartDelayTimeIndex]*1000)
3577  033f 5f            	clrw	x
3578  0340 b600          	ld	a,_Current_StartDelayTimeIndex
3579  0342 2a01          	jrpl	L061
3580  0344 53            	cplw	x
3581  0345               L061:
3582  0345 97            	ld	xl,a
3583  0346 e600          	ld	a,(_StartDelayTimeList,x)
3584  0348 5f            	clrw	x
3585  0349 97            	ld	xl,a
3586  034a 90ae03e8      	ldw	y,#1000
3587  034e cd0000        	call	c_umul
3589  0351 96            	ldw	x,sp
3590  0352 1c0001        	addw	x,#OFST-3
3591  0355 cd0000        	call	c_rtol
3594  0358 ae0021        	ldw	x,#_Run_LED_Flash_Delay_Count
3595  035b a601          	ld	a,#1
3596  035d cd0000        	call	c_lgadc
3598  0360 ae0021        	ldw	x,#_Run_LED_Flash_Delay_Count
3599  0363 cd0000        	call	c_ltor
3601  0366 96            	ldw	x,sp
3602  0367 1c0001        	addw	x,#OFST-3
3603  036a cd0000        	call	c_lcmp
3605  036d 2616          	jrne	L526
3606                     ; 2292 			Run_LED_Flash_Flag = FALSE;
3608  036f 3f31          	clr	_Run_LED_Flash_Flag
3609                     ; 2293 			GPIO_WriteLow(Run_LED_PORT, Run_LED_PIN);
3611  0371 4b80          	push	#128
3612  0373 ae500f        	ldw	x,#20495
3613  0376 cd0000        	call	_GPIO_WriteLow
3615  0379 84            	pop	a
3616                     ; 2294 			GPIO_WriteHigh(RelayControl_PORT,RelayControl_PIN);// 
3618  037a 4b10          	push	#16
3619  037c ae5000        	ldw	x,#20480
3620  037f cd0000        	call	_GPIO_WriteHigh
3622  0382 84            	pop	a
3624  0383 2027          	jra	L336
3625  0385               L526:
3626                     ; 2297 			if(++Run_LED_FlashFREQ_Delay_Count == 500){
3628  0385 be00          	ldw	x,_Run_LED_FlashFREQ_Delay_Count
3629  0387 1c0001        	addw	x,#1
3630  038a bf00          	ldw	_Run_LED_FlashFREQ_Delay_Count,x
3631  038c a301f4        	cpw	x,#500
3632  038f 261b          	jrne	L336
3633                     ; 2298 				Run_LED_FlashFREQ_Delay_Count = 0;
3635  0391 5f            	clrw	x
3636  0392 bf00          	ldw	_Run_LED_FlashFREQ_Delay_Count,x
3637                     ; 2299 				GPIO_WriteReverse(Run_LED_PORT, Run_LED_PIN);
3639  0394 4b80          	push	#128
3640  0396 ae500f        	ldw	x,#20495
3641  0399 cd0000        	call	_GPIO_WriteReverse
3643  039c 84            	pop	a
3644  039d 200d          	jra	L336
3645  039f               L326:
3646                     ; 2304 		Run_LED_Flash_Delay_Count = 0;
3648  039f ae0000        	ldw	x,#0
3649  03a2 bf23          	ldw	_Run_LED_Flash_Delay_Count+2,x
3650  03a4 ae0000        	ldw	x,#0
3651  03a7 bf21          	ldw	_Run_LED_Flash_Delay_Count,x
3652                     ; 2305 		Run_LED_FlashFREQ_Delay_Count = 0;
3654  03a9 5f            	clrw	x
3655  03aa bf00          	ldw	_Run_LED_FlashFREQ_Delay_Count,x
3656  03ac               L336:
3657                     ; 2309 	if(Parameter_Set_Flag){
3659  03ac 3d00          	tnz	_Parameter_Set_Flag
3660  03ae 2728          	jreq	L536
3661                     ; 2310 		if(++ParameterMode_Autoquit_Count == ParameterMode_Autoquit_Delaytime){
3663  03b0 ae0025        	ldw	x,#_ParameterMode_Autoquit_Count
3664  03b3 a601          	ld	a,#1
3665  03b5 cd0000        	call	c_lgadc
3667  03b8 ae0025        	ldw	x,#_ParameterMode_Autoquit_Count
3668  03bb cd0000        	call	c_ltor
3670  03be ae0b5e        	ldw	x,#L261
3671  03c1 cd0000        	call	c_lcmp
3673  03c4 261c          	jrne	L146
3674                     ; 2311 			ParameterMode_Autoquit_Count = 0;
3676  03c6 ae0000        	ldw	x,#0
3677  03c9 bf27          	ldw	_ParameterMode_Autoquit_Count+2,x
3678  03cb ae0000        	ldw	x,#0
3679  03ce bf25          	ldw	_ParameterMode_Autoquit_Count,x
3680                     ; 2312 			Parameter_Set_Flag = FALSE;
3682  03d0 3f00          	clr	_Parameter_Set_Flag
3683                     ; 2313 			dt = Tem_Show;
3685  03d2 35010000      	mov	_dt,#1
3686  03d6 200a          	jra	L146
3687  03d8               L536:
3688                     ; 2317 		ParameterMode_Autoquit_Count = 0;
3690  03d8 ae0000        	ldw	x,#0
3691  03db bf27          	ldw	_ParameterMode_Autoquit_Count+2,x
3692  03dd ae0000        	ldw	x,#0
3693  03e0 bf25          	ldw	_ParameterMode_Autoquit_Count,x
3694  03e2               L146:
3695                     ; 2319   TIM4_ClearITPendingBit(TIM4_IT_UPDATE);
3697  03e2 a601          	ld	a,#1
3698  03e4 cd0000        	call	_TIM4_ClearITPendingBit
3700                     ; 2320  }
3703  03e7 5b04          	addw	sp,#4
3704  03e9 85            	popw	x
3705  03ea bf00          	ldw	c_lreg,x
3706  03ec 85            	popw	x
3707  03ed bf02          	ldw	c_lreg+2,x
3708  03ef 85            	popw	x
3709  03f0 bf00          	ldw	c_y,x
3710  03f2 320002        	pop	c_y+2
3711  03f5 85            	popw	x
3712  03f6 bf00          	ldw	c_x,x
3713  03f8 320002        	pop	c_x+2
3714  03fb 80            	iret
3737                     ; 2328 INTERRUPT_HANDLER(EEPROM_EEC_IRQHandler, 24)
3737                     ; 2329 {
3738                     .text:	section	.text,new
3739  0000               f_EEPROM_EEC_IRQHandler:
3743                     ; 2333 }
3746  0000 80            	iret
4080                     	xdef	_step
4081                     	xdef	_StartStop_KeyLock_Flag
4082                     	xdef	_Run_LED_Flash_Flag
4083                     	xdef	_Relay_Output_Flag
4084                     	xdef	_Dig_Switch_Flag
4085                     	xdef	_Total_Error_Flag
4086                     	xdef	_TEM_Error_Exist_Flag
4087                     	xdef	_HP_Error_Exist_Flag
4088                     	xdef	_LP_Error_Exist_Flag
4089                     	xdef	_E_Error_Exist_Flag
4090                     	xdef	_ParameterMode_Autoquit_Count
4091                     	xdef	_Run_LED_Flash_Delay_Count
4092                     	xdef	_Tem_Alarm_Reset_Count
4093                     	xdef	_Tem_Alarm_Delay_Count
4094                     	switch	.ubsct
4095  0000               _Run_LED_FlashFREQ_Delay_Count:
4096  0000 0000          	ds.b	2
4097                     	xdef	_Run_LED_FlashFREQ_Delay_Count
4098                     	xdef	_Tem_Update_Delay_Count
4099                     	xdef	_Set_KEY_Delay_Count
4100                     	xdef	_StartStop_KEY_Delay_Count
4101                     	xdef	_RemoteControl_Stop_Delay_Count
4102                     	xdef	_RemoteControl_Start_Delay_Count
4103                     	xdef	_HP_Error_Delay_Count
4104                     	xdef	_LP_Error_Delay_Count
4105                     	xdef	_E_Error_Delay_Count
4106                     	xdef	_NTC_ADC_Count
4107                     	xdef	_SUM
4108                     	xref.b	_startdelaytimeselect_update_flag
4109                     	xref.b	_temshowenable_update_flag
4110                     	xref.b	_temoffset_update_flag
4111                     	xref.b	_temalarmenable_update_flag
4112                     	xref.b	_temalarmlowlimitsetting_update_flag
4113                     	xref.b	_temalarmhighlimitsetting_update_flag
4114                     	xref.b	_Current_TEMShowEnble
4115                     	xref.b	_Current_StartDelayTimeIndex
4116                     	xref.b	_Current_TEMAlarmEnable
4117                     	xref.b	_Current_TEMOffsetSetting
4118                     	xref.b	_Current_TemAlarmLowLimitValue
4119                     	xref.b	_Current_TemAlarmHighLimitValue
4120                     	xref	_leddisplay_scan
4121                     	xref.b	_StartDelayTimeList
4122                     	xref.b	_dt
4123                     	xdef	f_EEPROM_EEC_IRQHandler
4124                     	xdef	f_TIM4_UPD_OVF_IRQHandler
4125                     	xdef	f_ADC1_IRQHandler
4126                     	xdef	f_UART2_TX_IRQHandler
4127                     	xdef	f_UART2_RX_IRQHandler
4128                     	xdef	f_I2C_IRQHandler
4129                     	xdef	f_TIM3_CAP_COM_IRQHandler
4130                     	xdef	f_TIM3_UPD_OVF_BRK_IRQHandler
4131                     	xdef	f_TIM2_CAP_COM_IRQHandler
4132                     	xdef	f_TIM2_UPD_OVF_BRK_IRQHandler
4133                     	xdef	f_TIM1_UPD_OVF_TRG_BRK_IRQHandler
4134                     	xdef	f_TIM1_CAP_COM_IRQHandler
4135                     	xdef	f_SPI_IRQHandler
4136                     	xdef	f_EXTI_PORTE_IRQHandler
4137                     	xdef	f_EXTI_PORTD_IRQHandler
4138                     	xdef	f_EXTI_PORTC_IRQHandler
4139                     	xdef	f_EXTI_PORTB_IRQHandler
4140                     	xdef	f_EXTI_PORTA_IRQHandler
4141                     	xdef	f_CLK_IRQHandler
4142                     	xdef	f_AWU_IRQHandler
4143                     	xdef	f_TLI_IRQHandler
4144                     	xdef	f_TRAP_IRQHandler
4145                     	xdef	f_NonHandledInterrupt
4146                     	xdef	_Tem_Update_Flag
4147                     	xdef	_Parameter_Set_Flag
4148                     	xdef	_NTC_TEM_Value
4149                     	xdef	_NTC_Conversion_Value
4150                     	xdef	_TEMP_TABLE
4151                     	xref	_TIM4_ClearITPendingBit
4152                     	xref	_TIM3_ClearITPendingBit
4153                     	xref	_GPIO_ReadInputPin
4154                     	xref	_GPIO_WriteReverse
4155                     	xref	_GPIO_WriteLow
4156                     	xref	_GPIO_WriteHigh
4157                     	xref	_ADC1_ClearITPendingBit
4158                     	xref	_ADC1_GetConversionValue
4159                     	xref	_ADC1_ITConfig
4160                     	xref.b	c_lreg
4161                     	xref.b	c_x
4162                     	xref.b	c_y
4182                     	xref	c_rtol
4183                     	xref	c_umul
4184                     	xref	c_lcmp
4185                     	xref	c_ltor
4186                     	xref	c_lgadc
4187                     	end
